                             //
                             // segment_2.1 
                             // Loadable segment  [0x0 - 0x8bf]
                             // ram:00100000-ram:00100317
                             //
             assume DF = 0x0  (Default)
        00100000 7f  45  4c       Elf64_Eh
                 46  02  01 
                 01  00  00 
           00100000 7f              db        7Fh                     e_ident_magi
           00100001 45  4c  46       ds        "ELF"                   e_ident_magi
           00100004 02              db        2h                      e_ident_class
           00100005 01              db        1h                      e_ident_data
           00100006 01              db        1h                      e_ident_vers
           00100007 00              db        0h                      e_ident_osabi
           00100008 00              db        0h                      e_ident_abiv
           00100009 00  00  00  00  00  db[7]                             e_ident_pad
                    00  00
           00100010 03  00           dw        3h                      e_type
           00100012 3e  00           dw        3Eh                     e_machine
           00100014 01  00  00  00    ddw       1h                      e_version
           00100018 80  11  00  00  00  dq        entry                   e_entry
                    00  00  00
           00100020 40  00  00  00  00  dq        Elf64_Phdr_ARRAY_00100  e_phoff
                    00  00  00
           00100028 98  31  00  00  00  dq        Elf64_Shdr_ARRAY__elfS  e_shoff
                    00  00  00
           00100030 00  00  00  00    ddw       0h                      e_flags
           00100034 40  00           dw        40h                     e_ehsize
           00100036 38  00           dw        38h                     e_phentsize
           00100038 0d  00           dw        Dh                      e_phnum
           0010003a 40  00           dw        40h                     e_shentsize
           0010003c 1d  00           dw        1Dh                     e_shnum
           0010003e 1c  00           dw        1Ch                     e_shstrndx
                             Elf64_Phdr_ARRAY_00100040                       XREF[2]:     00100020 (*) , 00100050 (*)   
        00100040 06  00  00       Elf64_Ph                                                    PT_PHDR - Program header table
                 00  04  00 
                 00  00  40 
                             //
                             // .interp 
                             // SHT_PROGBITS  [0x318 - 0x333]
                             // ram:00100318-ram:00100333
                             //
                             s_/lib64/ld-linux-x86-64.so.2_00100318          XREF[2]:     00100088 (*) , 
                                                                                          _elfSectionHeaders::00000050 (*)   
        00100318 2f  6c  69       ds         "/lib64/ld-linux-x86-64.so.2"                    Initial Elf program interpreter
                 62  36  34 
                 2f  6c  64 
                             //
                             // .note.gnu.property 
                             // SHT_NOTE  [0x338 - 0x367]
                             // ram:00100338-ram:00100367
                             //
                             NoteGnuProperty_4_00100338                      XREF[3]:     001001d8 (*) , 00100248 (*) , 
                                                                                          _elfSectionHeaders::00000090 (*)   
        00100338 04  00  00       NoteGnuP                                                    Length of name field
                 00  20  00 
                 00  00  05 
        00100348 02  00  00       NoteGnuP                                                    processor opt 0xc0000002=03 00 0
                 c0  04  00 
                 00  00  03 
        00100354 00  00  00       NoteGnuP                                                    processor opt 0xc0008002=01 00 0
                 00  02  80 
                 00  c0  04 
        00100360 01              ??         01h
        00100361 00              ??         00h
        00100362 00              ??         00h
        00100363 00              ??         00h
        00100364 00              ??         00h
        00100365 00              ??         00h
        00100366 00              ??         00h
        00100367 00              ??         00h
                             //
                             // .note.gnu.build-id 
                             // SHT_NOTE  [0x368 - 0x38b]
                             // ram:00100368-ram:0010038b
                             //
                             GnuBuildId_00100368                             XREF[2]:     00100210 (*) , 
                                                                                          _elfSectionHeaders::000000d0 (*)   
        00100368 04  00  00       GnuBuild                                                    Length of name field
                 00  14  00 
                 00  00  03 
                             //
                             // .note.ABI-tag 
                             // SHT_NOTE  [0x38c - 0x3ab]
                             // ram:0010038c-ram:001003ab
                             //
                             NoteAbiTag_0010038c                             XREF[1]:     _elfSectionHeaders::00000110 (*)   
        0010038c 04  00  00       NoteAbiT                                                    Length of name field
                 00  10  00 
                 00  00  01 
                             //
                             // .gnu.hash 
                             // SHT_GNU_HASH  [0x3b0 - 0x3df]
                             // ram:001003b0-ram:001003df
                             //
                             __DT_GNU_HASH                                   XREF[2]:     00103df8 (*) , 
                                                                                          _elfSectionHeaders::00000150 (*)   
        001003b0 03  00  00  00    ddw        3h                                               GNU Hash Table - nbucket
        001003b4 0f  00  00  00    ddw        Fh                                               GNU Hash Table - symbase
        001003b8 01  00  00  00    ddw        1h                                               GNU Hash Table - bloom_size
        001003bc 06  00  00  00    ddw        6h                                               GNU Hash Table - bloom_shift
        001003c0 00  00  a1       dq[1]                                                       GNU Hash Table - bloom
                 00  80  01 
                 10  00
        001003c8 0f  00  00       ddw[3]                                                      GNU Hash Table - buckets
                 00  11  00 
                 00  00  00 
        001003d4 28  1d  8c       ddw[3]                                                      GNU Hash Table - chain
                 1c  d1  65 
                 ce  6d  67 
                             //
                             // .dynsym 
                             // SHT_DYNSYM  [0x3e0 - 0x58f]
                             // ram:001003e0-ram:0010058f
                             //
                             __DT_SYMTAB                                     XREF[2]:     00103e18 (*) , 
                                                                                          _elfSectionHeaders::00000190 (*)   
        001003e0 00  00  00       Elf64_Sy
                 00  00  00 
                 00  00  00 
                             //
                             // .dynstr 
                             // SHT_STRTAB  [0x590 - 0x675]
                             // ram:00100590-ram:00100675
                             //
                             __DT_STRTAB                                     XREF[2]:     00103e08 (*) , 
                                                                                          _elfSectionHeaders::000001d0 (*)   
        00100590 00              ??         00h
        00100591 73  74  72       ds         "strcpy"
                 63  70  79  00
        00100598 73  65  74       ds         "setvbuf"
                 76  62  75 
                 66  00
        001005a0 73  74  64       ds         "stdin"
                 69  6e  00
        001005a6 70  75  74       ds         "puts"
                 73  00
        001005ab 66  72  65       ds         "free"
                 65  00
        001005b0 65  78  69       ds         "exit"
                 74  00
        001005b5 73  79  73       ds         "system"
                 74  65  6d  00
        001005bc 72  65  61       ds         "read"
                 64  00
        001005c1 73  74  64       ds         "stdout"
                 6f  75  74  00
        001005c8 6d  61  6c       ds         "malloc"
                 6c  6f  63  00
        001005cf 5f  5f  6c       ds         "__libc_start_main"
                 69  62  63 
                 5f  73  74 
        001005e1 5f  5f  63       ds         "__cxa_finalize"
                 78  61  5f 
                 66  69  6e 
        001005f0 70  72  69       ds         "printf"
                 6e  74  66  00
        001005f7 5f  5f  69       ds         "__isoc99_scanf"
                 73  6f  63 
                 39  39  5f 
        00100606 6c  69  62       ds         "libc.so.6"
                 63  2e  73 
                 6f  2e  36  00
        00100610 47  4c  49       ds         "GLIBC_2.7"
                 42  43  5f 
                 32  2e  37  00
        0010061a 47  4c  49       ds         "GLIBC_2.34"
                 42  43  5f 
                 32  2e  33 
        00100625 47  4c  49       ds         "GLIBC_2.2.5"
                 42  43  5f 
                 32  2e  32 
        00100631 5f  49  54       ds         "_ITM_deregisterTMCloneTable"
                 4d  5f  64 
                 65  72  65 
        0010064d 5f  5f  67       ds         "__gmon_start__"
                 6d  6f  6e 
                 5f  73  74 
        0010065c 5f  49  54       ds         "_ITM_registerTMCloneTable"
                 4d  5f  72 
                 65  67  69 
                             //
                             // .gnu.version 
                             // SHT_GNU_versym  [0x676 - 0x699]
                             // ram:00100676-ram:00100699
                             //
                             __DT_VERSYM                                     XREF[2]:     00103f08 (*) , 
                                                                                          _elfSectionHeaders::00000210 (*)   
        00100676 00  00           dw         0h                                               0
        00100678 02  00           dw         2h                                               free
        0010067a 03  00           dw         3h                                               __libc_start_main
        0010067c 01  00           dw         1h                                               _ITM_deregisterTMCloneTable
        0010067e 02  00           dw         2h                                               strcpy
        00100680 02  00           dw         2h                                               puts
        00100682 02  00           dw         2h                                               system
        00100684 02  00           dw         2h                                               printf
        00100686 02  00           dw         2h                                               read
        00100688 01  00           dw         1h                                               __gmon_start__
        0010068a 02  00           dw         2h                                               malloc
        0010068c 02  00           dw         2h                                               setvbuf
        0010068e 04  00           dw         4h                                               __isoc99_scanf
        00100690 02  00           dw         2h                                               exit
        00100692 01  00           dw         1h                                               _ITM_registerTMCloneTable
        00100694 02  00           dw         2h                                               stdout
        00100696 02  00           dw         2h                                               __cxa_finalize
        00100698 02  00           dw         2h                                               stdin
                             //
                             // .gnu.version_r 
                             // SHT_GNU_verneed  [0x6a0 - 0x6df]
                             // ram:001006a0-ram:001006df
                             //
                             __DT_VERNEED                                    XREF[2]:     00103ee8 (*) , 
                                                                                          _elfSectionHeaders::00000250 (*)   
        001006a0 01              ??         01h
        001006a1 00              ??         00h
        001006a2 03              ??         03h
        001006a3 00              ??         00h
        001006a4 76              ??         76h    v
        001006a5 00              ??         00h
        001006a6 00              ??         00h                                              ?  ->  00100000
        001006a7 00              ??         00h
        001006a8 10              ??         10h
        001006a9 00              ??         00h
        001006aa 00              ??         00h
        001006ab 00              ??         00h
        001006ac 00              ??         00h
        001006ad 00              ??         00h
        001006ae 00              ??         00h
        001006af 00              ??         00h
        001006b0 17              ??         17h
        001006b1 69              ??         69h    i
        001006b2 69              ??         69h    i
        001006b3 0d              ??         0Dh
        001006b4 00              ??         00h
        001006b5 00              ??         00h
        001006b6 04              ??         04h
        001006b7 00              ??         00h
        001006b8 80              ??         80h
        001006b9 00              ??         00h
        001006ba 00              ??         00h
        001006bb 00              ??         00h
        001006bc 10              ??         10h
        001006bd 00              ??         00h
        001006be 00              ??         00h
        001006bf 00              ??         00h
        001006c0 b4              ??         B4h
        001006c1 91              ??         91h
        001006c2 96              ??         96h
        001006c3 06              ??         06h
        001006c4 00              ??         00h
        001006c5 00              ??         00h
        001006c6 03              ??         03h
        001006c7 00              ??         00h
        001006c8 8a              ??         8Ah
        001006c9 00              ??         00h
        001006ca 00              ??         00h
        001006cb 00              ??         00h
        001006cc 10              ??         10h
        001006cd 00              ??         00h
        001006ce 00              ??         00h
        001006cf 00              ??         00h
        001006d0 75              ??         75h    u
        001006d1 1a              ??         1Ah
        001006d2 69              ??         69h    i
        001006d3 09              ??         09h
        001006d4 00              ??         00h
        001006d5 00              ??         00h
        001006d6 02              ??         02h
        001006d7 00              ??         00h
        001006d8 95              ??         95h
        001006d9 00              ??         00h
        001006da 00              ??         00h
        001006db 00              ??         00h
        001006dc 00              ??         00h
        001006dd 00              ??         00h
        001006de 00              ??         00h
        001006df 00              ??         00h
                             //
                             // .rela.dyn 
                             // SHT_RELA  [0x6e0 - 0x7cf]
                             // ram:001006e0-ram:001007cf
                             //
                             __DT_RELA                                       XREF[2]:     00103e98 (*) , 
                                                                                          _elfSectionHeaders::00000290 (*)   
        001006e0 70  3d  00       Elf64_Re                                                    location to apply the relocation
                 00  00  00 
                 00  00  08 
                             //
                             // .rela.plt 
                             // SHT_RELA  [0x7d0 - 0x8bf]
                             // ram:001007d0-ram:001008bf
                             //
                             __DT_JMPREL                                     XREF[2]:     00103e88 (*) , 
                                                                                          _elfSectionHeaders::000002d0 (*)   
        001007d0 88  3f  00       Elf64_Re                                                    location to apply the relocation
                 00  00  00 
                 00  00  07 
                             //
                             // .init 
                             // SHT_PROGBITS  [0x1000 - 0x101a]
                             // ram:00101000-ram:0010101a
                             //
                             *************************************************************
                             *                           FUNCTION                          
                             *************************************************************
                             undefined  _DT_INIT ()
             undefined         AL:1           <RETURN>
                             __DT_INIT                                       XREF[4]:     Entry Point (*) , 001000f8 (*) , 
                             _DT_INIT                                                     00103d98 (*) , 
                                                                                          _elfSectionHeaders::00000310 (*)   
        00101000 f3  0f  1e  fa    ENDBR64
        00101004 48  83  ec  08    SUB        RSP ,0x8
        00101008 48  8b  05       MOV        RAX =><EXTERNAL>::__gmon_start__ ,qword ptr [-><  = ??
                 d9  2f  00  00                                                                = 00105040
        0010100f 48  85  c0       TEST       RAX ,RAX
        00101012 74  02           JZ         LAB_00101016
        00101014 ff  d0           CALL       RAX =><EXTERNAL>::__gmon_start__                 undefined __gmon_start__()
                             LAB_00101016                                    XREF[1]:     00101012 (j)   
        00101016 48  83  c4  08    ADD        RSP ,0x8
        0010101a c3              RET
                             //
                             // .plt 
                             // SHT_PROGBITS  [0x1020 - 0x10cf]
                             // ram:00101020-ram:001010cf
                             //
                             *************************************************************
                             *                           FUNCTION                          
                             *************************************************************
                             undefined  FUN_00101020 ()
             undefined         AL:1           <RETURN>
                             FUN_00101020                                    XREF[13]:    00101039 (c) , 00101049 (c) , 
                                                                                          00101059 (c) , 00101069 (c) , 
                                                                                          00101079 (c) , 00101089 (c) , 
                                                                                          00101099 (c) , 001010a9 (c) , 
                                                                                          001010b9 (c) , 001010c9 (c) , 
                                                                                          00102040 , 001020b0 (*) , 
                                                                                          _elfSectionHeaders::00000350 (*)   
        00101020 ff  35  52       PUSH       qword ptr [PTR_00103f78 ]                        = 00000000
                 2f  00  00
        00101026 ff  25  54       JMP        qword ptr [PTR_00103f80 ]
                 2f  00  00
        0010102c 0f              ??         0Fh
        0010102d 1f              ??         1Fh
        0010102e 40              ??         40h    @
        0010102f 00              ??         00h
        00101030 f3  0f  1e  fa    ENDBR64
        00101034 68  00  00       PUSH       0x0
                 00  00
        00101039 e9  e2  ff       JMP        FUN_00101020                                     undefined FUN_00101020()
                 ff  ff
                             -- Flow Override: CALL_RETURN (CALL_TERMINATOR)
        0010103e 66  90           NOP
        00101040 f3  0f  1e  fa    ENDBR64
        00101044 68  01  00       PUSH       0x1
                 00  00
        00101049 e9  d2  ff       JMP        FUN_00101020                                     undefined FUN_00101020()
                 ff  ff
                             -- Flow Override: CALL_RETURN (CALL_TERMINATOR)
        0010104e 66  90           NOP
        00101050 f3  0f  1e  fa    ENDBR64
        00101054 68  02  00       PUSH       0x2
                 00  00
        00101059 e9  c2  ff       JMP        FUN_00101020                                     undefined FUN_00101020()
                 ff  ff
                             -- Flow Override: CALL_RETURN (CALL_TERMINATOR)
        0010105e 66  90           NOP
        00101060 f3  0f  1e  fa    ENDBR64
        00101064 68  03  00       PUSH       0x3
                 00  00
        00101069 e9  b2  ff       JMP        FUN_00101020                                     undefined FUN_00101020()
                 ff  ff
                             -- Flow Override: CALL_RETURN (CALL_TERMINATOR)
        0010106e 66  90           NOP
        00101070 f3  0f  1e  fa    ENDBR64
        00101074 68  04  00       PUSH       0x4
                 00  00
        00101079 e9  a2  ff       JMP        FUN_00101020                                     undefined FUN_00101020()
                 ff  ff
                             -- Flow Override: CALL_RETURN (CALL_TERMINATOR)
        0010107e 66  90           NOP
        00101080 f3  0f  1e  fa    ENDBR64
        00101084 68  05  00       PUSH       0x5
                 00  00
        00101089 e9  92  ff       JMP        FUN_00101020                                     undefined FUN_00101020()
                 ff  ff
                             -- Flow Override: CALL_RETURN (CALL_TERMINATOR)
        0010108e 66  90           NOP
        00101090 f3  0f  1e  fa    ENDBR64
        00101094 68  06  00       PUSH       0x6
                 00  00
        00101099 e9  82  ff       JMP        FUN_00101020                                     undefined FUN_00101020()
                 ff  ff
                             -- Flow Override: CALL_RETURN (CALL_TERMINATOR)
        0010109e 66  90           NOP
        001010a0 f3  0f  1e  fa    ENDBR64
        001010a4 68  07  00       PUSH       0x7
                 00  00
        001010a9 e9  72  ff       JMP        FUN_00101020                                     undefined FUN_00101020()
                 ff  ff
                             -- Flow Override: CALL_RETURN (CALL_TERMINATOR)
        001010ae 66  90           NOP
        001010b0 f3  0f  1e  fa    ENDBR64
        001010b4 68  08  00       PUSH       0x8
                 00  00
        001010b9 e9  62  ff       JMP        FUN_00101020                                     undefined FUN_00101020()
                 ff  ff
                             -- Flow Override: CALL_RETURN (CALL_TERMINATOR)
        001010be 66  90           NOP
        001010c0 f3  0f  1e  fa    ENDBR64
        001010c4 68  09  00       PUSH       0x9
                 00  00
        001010c9 e9  52  ff       JMP        FUN_00101020                                     undefined FUN_00101020()
                 ff  ff
                             -- Flow Override: CALL_RETURN (CALL_TERMINATOR)
        001010ce 66  90           NOP
                             //
                             // .plt.got 
                             // SHT_PROGBITS  [0x10d0 - 0x10df]
                             // ram:001010d0-ram:001010df
                             //
                             *************************************************************
                             *                        THUNK FUNCTION                       
                             *************************************************************
                             thunk  undefined  __cxa_finalize ()
                               Thunked-Function:  <EXTERNAL>::__cxa_fina
             undefined         AL:1           <RETURN>
                             <EXTERNAL>::__cxa_finalize                      XREF[4]:     _FINI_0:00101242 (c) , 00102048 , 
                                                                                          001020d8 (*) , 
                                                                                          _elfSectionHeaders::00000390 (*)   
        001010d0 f3  0f  1e  fa    ENDBR64
        001010d4 ff  25  1e       JMP        qword ptr [-><EXTERNAL>::__cxa_finalize ]        undefined __cxa_finalize()
                 2f  00  00
                             -- Flow Override: CALL_RETURN (COMPUTED_CALL_TERMINATOR)
        001010da 66              ??         66h    f
        001010db 0f              ??         0Fh
        001010dc 1f              ??         1Fh
        001010dd 44              ??         44h    D
        001010de 00              ??         00h
        001010df 00              ??         00h
                             //
                             // .plt.sec 
                             // SHT_PROGBITS  [0x10e0 - 0x117f]
                             // ram:001010e0-ram:0010117f
                             //
                             *************************************************************
                             *                        THUNK FUNCTION                       
                             *************************************************************
                             thunk  void  free (void *  __ptr )
                               Thunked-Function:  <EXTERNAL>::free
             void              <VOID>         <RETURN>
             void *            RDI:8          __ptr
                             <EXTERNAL>::free                                XREF[4]:     FUN_001014f0:001015e9 (c) , 
                                                                                          00102050 , 001020f0 (*) , 
                                                                                          _elfSectionHeaders::000003d0 (*)   
        001010e0 f3  0f  1e  fa    ENDBR64
        001010e4 ff  25  9e       JMP        qword ptr [-><EXTERNAL>::free ]                  void free(void * __ptr)
                 2e  00  00
                             -- Flow Override: CALL_RETURN (COMPUTED_CALL_TERMINATOR)
        001010ea 66              ??         66h    f
        001010eb 0f              ??         0Fh
        001010ec 1f              ??         1Fh
        001010ed 44              ??         44h    D
        001010ee 00              ??         00h
        001010ef 00              ??         00h
                             *************************************************************
                             *                        THUNK FUNCTION                       
                             *************************************************************
                             thunk  char *  strcpy (char *  __dest , char *  __src )
                               Thunked-Function:  <EXTERNAL>::strcpy
             char *            RAX:8          <RETURN>
             char *            RDI:8          __dest
             char *            RSI:8          __src
                             <EXTERNAL>::strcpy                              XREF[1]:     FUN_001014f0:001015d1 (c)   
        001010f0 f3  0f  1e  fa    ENDBR64
        001010f4 ff  25  96       JMP        qword ptr [-><EXTERNAL>::strcpy ]                char * strcpy(char * __dest, cha
                 2e  00  00
                             -- Flow Override: CALL_RETURN (COMPUTED_CALL_TERMINATOR)
        001010fa 66              ??         66h    f
        001010fb 0f              ??         0Fh
        001010fc 1f              ??         1Fh
        001010fd 44              ??         44h    D
        001010fe 00              ??         00h
        001010ff 00              ??         00h
                             *************************************************************
                             *                        THUNK FUNCTION                       
                             *************************************************************
                             thunk  int  puts (char *  __s )
                               Thunked-Function:  <EXTERNAL>::puts
             int               EAX:4          <RETURN>
             char *            RDI:8          __s
                             <EXTERNAL>::puts                                XREF[4]:     FUN_001014f0:0010153a (c) , 
                                                                                          FUN_001014f0:00101549 (c) , 
                                                                                          FUN_001014f0:001015dd (c) , 
                                                                                          FUN_001014f0:0010161b (c)   
        00101100 f3  0f  1e  fa    ENDBR64
        00101104 ff  25  8e       JMP        qword ptr [-><EXTERNAL>::puts ]                  int puts(char * __s)
                 2e  00  00
                             -- Flow Override: CALL_RETURN (COMPUTED_CALL_TERMINATOR)
        0010110a 66              ??         66h    f
        0010110b 0f              ??         0Fh
        0010110c 1f              ??         1Fh
        0010110d 44              ??         44h    D
        0010110e 00              ??         00h
        0010110f 00              ??         00h
                             *************************************************************
                             *                        THUNK FUNCTION                       
                             *************************************************************
                             thunk  int  system (char *  __command )
                               Thunked-Function:  <EXTERNAL>::system
             int               EAX:4          <RETURN>
             char *            RDI:8          __command
                             <EXTERNAL>::system                              XREF[1]:     FUN_001014f0:00101605 (c)   
        00101110 f3  0f  1e  fa    ENDBR64
        00101114 ff  25  86       JMP        qword ptr [-><EXTERNAL>::system ]                int system(char * __command)
                 2e  00  00
                             -- Flow Override: CALL_RETURN (COMPUTED_CALL_TERMINATOR)
        0010111a 66              ??         66h    f
        0010111b 0f              ??         0Fh
        0010111c 1f              ??         1Fh
        0010111d 44              ??         44h    D
        0010111e 00              ??         00h
        0010111f 00              ??         00h
                             *************************************************************
                             *                        THUNK FUNCTION                       
                             *************************************************************
                             thunk  int  printf (char *  __format , ... )
                               Thunked-Function:  <EXTERNAL>::printf
             int               EAX:4          <RETURN>
             char *            RDI:8          __format
                             <EXTERNAL>::printf                              XREF[1]:     FUN_001014f0:0010155d (c)   
        00101120 f3  0f  1e  fa    ENDBR64
        00101124 ff  25  7e       JMP        qword ptr [-><EXTERNAL>::printf ]                int printf(char * __format, ...)
                 2e  00  00
                             -- Flow Override: CALL_RETURN (COMPUTED_CALL_TERMINATOR)
        0010112a 66              ??         66h    f
        0010112b 0f              ??         0Fh
        0010112c 1f              ??         1Fh
        0010112d 44              ??         44h    D
        0010112e 00              ??         00h
        0010112f 00              ??         00h
                             *************************************************************
                             *                        THUNK FUNCTION                       
                             *************************************************************
                             thunk  ssize_t  read (int  __fd , void *  __buf , size_t  __nby
                               Thunked-Function:  <EXTERNAL>::read
             ssize_t           RAX:8          <RETURN>
             int               EDI:4          __fd
             void *            RSI:8          __buf
             size_t            RDX:8          __nbytes
                             <EXTERNAL>::read                                XREF[1]:     FUN_001014f0:0010159f (c)   
        00101130 f3  0f  1e  fa    ENDBR64
        00101134 ff  25  76       JMP        qword ptr [-><EXTERNAL>::read ]                  ssize_t read(int __fd, void * __
                 2e  00  00
                             -- Flow Override: CALL_RETURN (COMPUTED_CALL_TERMINATOR)
        0010113a 66              ??         66h    f
        0010113b 0f              ??         0Fh
        0010113c 1f              ??         1Fh
        0010113d 44              ??         44h    D
        0010113e 00              ??         00h
        0010113f 00              ??         00h
                             *************************************************************
                             *                        THUNK FUNCTION                       
                             *************************************************************
                             thunk  void *  malloc (size_t  __size )
                               Thunked-Function:  <EXTERNAL>::malloc
             void *            RAX:8          <RETURN>
             size_t            RDI:8          __size
                             <EXTERNAL>::malloc                              XREF[1]:     FUN_00101269:001012a9 (c)   
        00101140 f3  0f  1e  fa    ENDBR64
        00101144 ff  25  6e       JMP        qword ptr [-><EXTERNAL>::malloc ]                void * malloc(size_t __size)
                 2e  00  00
                             -- Flow Override: CALL_RETURN (COMPUTED_CALL_TERMINATOR)
        0010114a 66              ??         66h    f
        0010114b 0f              ??         0Fh
        0010114c 1f              ??         1Fh
        0010114d 44              ??         44h    D
        0010114e 00              ??         00h
        0010114f 00              ??         00h
                             *************************************************************
                             *                        THUNK FUNCTION                       
                             *************************************************************
                             thunk  int  setvbuf (FILE *  __stream , char *  __buf , int  __
                               Thunked-Function:  <EXTERNAL>::setvbuf
             int               EAX:4          <RETURN>
             FILE *            RDI:8          __stream
             char *            RSI:8          __buf
             int               EDX:4          __modes
             size_t            RCX:8          __n
                             <EXTERNAL>::setvbuf                             XREF[2]:     FUN_001014a9:001014ca (c) , 
                                                                                          FUN_001014a9:001014e8 (c)   
        00101150 f3  0f  1e  fa    ENDBR64
        00101154 ff  25  66       JMP        qword ptr [-><EXTERNAL>::setvbuf ]               int setvbuf(FILE * __stream, cha
                 2e  00  00
                             -- Flow Override: CALL_RETURN (COMPUTED_CALL_TERMINATOR)
        0010115a 66              ??         66h    f
        0010115b 0f              ??         0Fh
        0010115c 1f              ??         1Fh
        0010115d 44              ??         44h    D
        0010115e 00              ??         00h
        0010115f 00              ??         00h
                             *************************************************************
                             *                        THUNK FUNCTION                       
                             *************************************************************
                             thunk  undefined  __isoc99_scanf ()
                               Thunked-Function:  <EXTERNAL>::__isoc99_s
             undefined         AL:1           <RETURN>
                             <EXTERNAL>::__isoc99_scanf                      XREF[1]:     FUN_001014f0:0010157b (c)   
        00101160 f3  0f  1e  fa    ENDBR64
        00101164 ff  25  5e       JMP        qword ptr [-><EXTERNAL>::__isoc99_scanf ]        undefined __isoc99_scanf()
                 2e  00  00
                             -- Flow Override: CALL_RETURN (COMPUTED_CALL_TERMINATOR)
        0010116a 66              ??         66h    f
        0010116b 0f              ??         0Fh
        0010116c 1f              ??         1Fh
        0010116d 44              ??         44h    D
        0010116e 00              ??         00h
        0010116f 00              ??         00h
                             *************************************************************
                             *                        THUNK FUNCTION                       
                             *************************************************************
                             thunk  noreturn  void  exit (int  __status )
                               Thunked-Function:  <EXTERNAL>::exit
             void              <VOID>         <RETURN>
             int               EDI:4          __status
                             <EXTERNAL>::exit                                XREF[1]:     FUN_001014f0:00101625 (c)   
        00101170 f3  0f  1e  fa    ENDBR64
        00101174 ff  25  56       JMP        qword ptr [-><EXTERNAL>::exit ]                  void exit(int __status)
                 2e  00  00
                             -- Flow Override: CALL_RETURN (COMPUTED_CALL_TERMINATOR)
        0010117a 66              ??         66h    f
        0010117b 0f              ??         0Fh
        0010117c 1f              ??         1Fh
        0010117d 44              ??         44h    D
        0010117e 00              ??         00h
        0010117f 00              ??         00h
                             //
                             // .text 
                             // SHT_PROGBITS  [0x1180 - 0x162b]
                             // ram:00101180-ram:0010162b
                             //
                             *************************************************************
                             *                           FUNCTION                          
                             *************************************************************
                             undefined  processEntry  entry ()
             undefined         AL:1           <RETURN>
             undefined8        Stack[-0x10]:8 local_10                                XREF[1]:     00101192 (*)   
                             entry                                           XREF[5]:     Entry Point (*) , 00100018 (*) , 
                                                                                          00102058 , 00102098 (*) , 
                                                                                          _elfSectionHeaders::00000410 (*)   
        00101180 f3  0f  1e  fa    ENDBR64
        00101184 31  ed           XOR        EBP ,EBP
        00101186 49  89  d1       MOV        R9,RDX
        00101189 5e              POP        RSI
        0010118a 48  89  e2       MOV        RDX ,RSP
        0010118d 48  83  e4  f0    AND        RSP ,-0x10
        00101191 50              PUSH       RAX
        00101192 54              PUSH       RSP =>local_10
        00101193 45  31  c0       XOR        R8D ,R8D
        00101196 31  c9           XOR        ECX ,ECX
        00101198 48  8d  3d       LEA        RDI ,[FUN_001014f0 ]
                 51  03  00  00
        0010119f ff  15  33       CALL       qword ptr [-><EXTERNAL>::__libc_start_main ]     undefined __libc_start_main()
                 2e  00  00                                                                   = 00105008
        001011a5 f4              HLT
        001011a6 66              ??         66h    f
        001011a7 2e              ??         2Eh    .
        001011a8 0f              ??         0Fh
        001011a9 1f              ??         1Fh
        001011aa 84              ??         84h
        001011ab 00              ??         00h
        001011ac 00              ??         00h
        001011ad 00              ??         00h
        001011ae 00              ??         00h
        001011af 00              ??         00h
                             *************************************************************
                             *                           FUNCTION                          
                             *************************************************************
                             undefined  FUN_001011b0 ()
             undefined         AL:1           <RETURN>
                             FUN_001011b0                                    XREF[1]:     _FINI_0:00101247 (c)   
        001011b0 48  8d  3d       LEA        RDI ,[0x104068 ]
                 b1  2e  00  00
        001011b7 48  8d  05       LEA        RAX ,[0x104068 ]
                 aa  2e  00  00
        001011be 48  39  f8       CMP        RAX ,RDI
        001011c1 74  15           JZ         LAB_001011d8
        001011c3 48  8b  05       MOV        RAX =><EXTERNAL>::_ITM_deregisterTMCloneTable ,  = ??
                 16  2e  00  00                                                                = 00105010
        001011ca 48  85  c0       TEST       RAX ,RAX
        001011cd 74  09           JZ         LAB_001011d8
        001011cf ff  e0           JMP        RAX =><EXTERNAL>::_ITM_deregisterTMCloneTable    undefined _ITM_deregisterTMClone
                             -- Flow Override: CALL_RETURN (COMPUTED_CALL_TERMINATOR)
        001011d1 0f              ??         0Fh
        001011d2 1f              ??         1Fh
        001011d3 80              ??         80h
        001011d4 00              ??         00h
        001011d5 00              ??         00h
        001011d6 00              ??         00h
        001011d7 00              ??         00h
                             LAB_001011d8                                    XREF[2]:     001011c1 (j) , 001011cd (j)   
        001011d8 c3              RET
        001011d9 0f              ??         0Fh
        001011da 1f              ??         1Fh
        001011db 80              ??         80h
        001011dc 00              ??         00h
        001011dd 00              ??         00h
        001011de 00              ??         00h
        001011df 00              ??         00h
                             *************************************************************
                             *                           FUNCTION                          
                             *************************************************************
                             undefined  FUN_001011e0 ()
             undefined         AL:1           <RETURN>
                             FUN_001011e0                                    XREF[1]:     _INIT_0:00101260 (T) , 
                                                                                          _INIT_0:00101264 (c)   
        001011e0 48  8d  3d       LEA        RDI ,[0x104068 ]
                 81  2e  00  00
        001011e7 48  8d  35       LEA        RSI ,[0x104068 ]
                 7a  2e  00  00
        001011ee 48  29  fe       SUB        RSI ,RDI
        001011f1 48  89  f0       MOV        RAX ,RSI
        001011f4 48  c1  ee  3f    SHR        RSI ,0x3f
        001011f8 48  c1  f8  03    SAR        RAX ,0x3
        001011fc 48  01  c6       ADD        RSI ,RAX
        001011ff 48  d1  fe       SAR        RSI ,0x1
        00101202 74  14           JZ         LAB_00101218
        00101204 48  8b  05       MOV        RAX =><EXTERNAL>::_ITM_registerTMCloneTable ,qw  = ??
                 e5  2d  00  00                                                                = 00105068
        0010120b 48  85  c0       TEST       RAX ,RAX
        0010120e 74  08           JZ         LAB_00101218
        00101210 ff  e0           JMP        RAX =><EXTERNAL>::_ITM_registerTMCloneTable      undefined _ITM_registerTMCloneTa
                             -- Flow Override: CALL_RETURN (COMPUTED_CALL_TERMINATOR)
        00101212 66              ??         66h    f
        00101213 0f              ??         0Fh
        00101214 1f              ??         1Fh
        00101215 44              ??         44h    D
        00101216 00              ??         00h
        00101217 00              ??         00h
                             LAB_00101218                                    XREF[2]:     00101202 (j) , 0010120e (j)   
        00101218 c3              RET
        00101219 0f              ??         0Fh
        0010121a 1f              ??         1Fh
        0010121b 80              ??         80h
        0010121c 00              ??         00h
        0010121d 00              ??         00h
        0010121e 00              ??         00h
        0010121f 00              ??         00h
                             *************************************************************
                             *                           FUNCTION                          
                             *************************************************************
                             undefined  _FINI_0 ()
             undefined         AL:1           <RETURN>
                             _FINI_0                                         XREF[2]:     Entry Point (*) , 00103d78 (*)   
        00101220 f3  0f  1e  fa    ENDBR64
        00101224 80  3d  5d       CMP        byte ptr [DAT_00104088 ],0x0
                 2e  00  00  00
        0010122b 75  2b           JNZ        LAB_00101258
        0010122d 55              PUSH       RBP
        0010122e 48  83  3d       CMP        qword ptr [-><EXTERNAL>::__cxa_finalize ],0x0    = 00105070
                 c2  2d  00 
                 00  00
        00101236 48  89  e5       MOV        RBP ,RSP
        00101239 74  0c           JZ         LAB_00101247
        0010123b 48  8b  3d       MOV        RDI ,qword ptr [PTR_LOOP_00104008 ]               = 00104008
                 c6  2d  00  00
        00101242 e8  89  fe       CALL       <EXTERNAL>::__cxa_finalize                       undefined __cxa_finalize()
                 ff  ff
                             LAB_00101247                                    XREF[1]:     00101239 (j)   
        00101247 e8  64  ff       CALL       FUN_001011b0                                     undefined FUN_001011b0()
                 ff  ff
        0010124c c6  05  35       MOV        byte ptr [DAT_00104088 ],0x1
                 2e  00  00  01
        00101253 5d              POP        RBP
        00101254 c3              RET
        00101255 0f              ??         0Fh
        00101256 1f              ??         1Fh
        00101257 00              ??         00h
                             LAB_00101258                                    XREF[1]:     0010122b (j)   
        00101258 c3              RET
        00101259 0f              ??         0Fh
        0010125a 1f              ??         1Fh
        0010125b 80              ??         80h
        0010125c 00              ??         00h
        0010125d 00              ??         00h
        0010125e 00              ??         00h
        0010125f 00              ??         00h
                             *************************************************************
                             *                        THUNK FUNCTION                       
                             *************************************************************
                             thunk  undefined  _INIT_0 ()
                               Thunked-Function:  FUN_001011e0
             undefined         AL:1           <RETURN>
                             _INIT_0                                         XREF[2]:     Entry Point (*) , 00103d70 (*)   
        00101260 f3  0f  1e  fa    ENDBR64
        00101264 e9  77  ff       JMP        FUN_001011e0                                     undefined FUN_001011e0()
                 ff  ff
                             -- Flow Override: CALL_RETURN (CALL_TERMINATOR)
                             *************************************************************
                             *                           FUNCTION                          
                             *************************************************************
                             undefined  FUN_00101269 ()
             undefined         AL:1           <RETURN>
             undefined4        Stack[-0xc]:4  local_c                                 XREF[11]:    001012c3 (W) , 
                                                                                                   001012d6 (R) , 
                                                                                                   001012e1 (R) , 
                                                                                                   001012e7 (W) , 
                                                                                                   00101304 (R) , 
                                                                                                   0010130f (R) , 
                                                                                                   00101315 (W) , 
                                                                                                   00101332 (R) , 
                                                                                                   0010133d (R) , 
                                                                                                   00101343 (W) , 
                                                                                                   00101429 (R)   
             undefined4        Stack[-0x10]:4 local_10                                XREF[9]:     001012ca (W) , 
                                                                                                   00101383 (R) , 
                                                                                                   00101389 (W) , 
                                                                                                   001013b0 (R) , 
                                                                                                   001013b6 (W) , 
                                                                                                   001013dd (R) , 
                                                                                                   001013e3 (W) , 
                                                                                                   00101407 (R) , 
                                                                                                   0010140d (W)   
             undefined4        Stack[-0x14]:4 local_14                                XREF[5]:     0010129b (W) , 
                                                                                                   0010129e (R) , 
                                                                                                   00101467 (R) , 
                                                                                                   00101480 (R) , 
                                                                                                   00101493 (R)   
             undefined8        Stack[-0x20]:8 local_20                                XREF[10]:    001012ae (W) , 
                                                                                                   001012b2 (R) , 
                                                                                                   0010138f (R) , 
                                                                                                   001013bc (R) , 
                                                                                                   001013e9 (R) , 
                                                                                                   00101413 (R) , 
                                                                                                   00101470 (R) , 
                                                                                                   00101489 (R) , 
                                                                                                   00101499 (R) , 
                                                                                                   001014a3 (R)   
             undefined4        Stack[-0x24]:4 local_24                                XREF[3]:     0010145e (W) , 
                                                                                                   00101461 (R) , 
                                                                                                   0010147a (R)   
             undefined4        Stack[-0x28]:4 local_28                                XREF[2]:     00101301 (W) , 
                                                                                                   00101360 (R)   
             undefined4        Stack[-0x2c]:4 local_2c                                XREF[2]:     0010132f (W) , 
                                                                                                   00101368 (R)   
             undefined4        Stack[-0x30]:4 local_30                                XREF[2]:     0010135d (W) , 
                                                                                                   00101370 (R)   
             undefined4        Stack[-0x34]:4 local_34                                XREF[5]:     00101375 (W) , 
                                                                                                   00101378 (R) , 
                                                                                                   001013a5 (R) , 
                                                                                                   001013d2 (R) , 
                                                                                                   001013ff (R)   
             undefined8        Stack[-0x40]:8 local_40                                XREF[4]:     00101275 (W) , 
                                                                                                   001012ed (R) , 
                                                                                                   0010131b (R) , 
                                                                                                   00101349 (R)   
             undefined8        Stack[-0x48]:8 local_48                                XREF[7]:     00101279 (W) , 
                                                                                                   0010127d (R) , 
                                                                                                   001012db (R) , 
                                                                                                   00101309 (R) , 
                                                                                                   00101337 (R) , 
                                                                                                   0010142e (R) , 
                                                                                                   00101438 (R)   
                             FUN_00101269                                    XREF[3]:     FUN_001014f0:001015ba (c) , 
                                                                                          00102060 , 00102108 (*)   
        00101269 f3  0f  1e  fa    ENDBR64
        0010126d 55              PUSH       RBP
        0010126e 48  89  e5       MOV        RBP ,RSP
        00101271 48  83  ec  40    SUB        RSP ,0x40
        00101275 48  89  7d  c8    MOV        qword ptr [RBP  + local_40 ],RDI
        00101279 48  89  75  c0    MOV        qword ptr [RBP  + local_48 ],RSI
        0010127d 48  8b  45  c0    MOV        RAX ,qword ptr [RBP  + local_48 ]
        00101281 48  83  c0  02    ADD        RAX ,0x2
        00101285 48  ba  ab       MOV        RDX ,-0x5555555555555555
                 aa  aa  aa 
                 aa  aa  aa  aa
        0010128f 48  f7  e2       MUL        RDX
        00101292 48  89  d0       MOV        RAX ,RDX
        00101295 48  d1  e8       SHR        RAX ,0x1
        00101298 c1  e0  02       SHL        EAX ,0x2
        0010129b 89  45  f4       MOV        dword ptr [RBP  + local_14 ],EAX
        0010129e 8b  45  f4       MOV        EAX ,dword ptr [RBP  + local_14 ]
        001012a1 83  c0  01       ADD        EAX ,0x1
        001012a4 48  98           CDQE
        001012a6 48  89  c7       MOV        RDI ,RAX
        001012a9 e8  92  fe       CALL       <EXTERNAL>::malloc                               void * malloc(size_t __size)
                 ff  ff
        001012ae 48  89  45  e8    MOV        qword ptr [RBP  + local_20 ],RAX
        001012b2 48  83  7d       CMP        qword ptr [RBP  + local_20 ],0x0
                 e8  00
        001012b7 75  0a           JNZ        LAB_001012c3
        001012b9 b8  00  00       MOV        EAX ,0x0
                 00  00
        001012be e9  e4  01       JMP        LAB_001014a7
                 00  00
                             LAB_001012c3                                    XREF[1]:     001012b7 (j)   
        001012c3 c7  45  fc       MOV        dword ptr [RBP  + local_c ],0x0
                 00  00  00  00
        001012ca c7  45  f8       MOV        dword ptr [RBP  + local_10 ],0x0
                 00  00  00  00
        001012d1 e9  53  01       JMP        LAB_00101429
                 00  00
                             LAB_001012d6                                    XREF[1]:     00101432 (j)   
        001012d6 8b  45  fc       MOV        EAX ,dword ptr [RBP  + local_c ]
        001012d9 48  98           CDQE
        001012db 48  3b  45  c0    CMP        RAX ,qword ptr [RBP  + local_48 ]
        001012df 73  1b           JNC        LAB_001012fc
        001012e1 8b  45  fc       MOV        EAX ,dword ptr [RBP  + local_c ]
        001012e4 8d  50  01       LEA        EDX ,[RAX  + 0x1 ]
        001012e7 89  55  fc       MOV        dword ptr [RBP  + local_c ],EDX
        001012ea 48  63  d0       MOVSXD     RDX ,EAX
        001012ed 48  8b  45  c8    MOV        RAX ,qword ptr [RBP  + local_40 ]
        001012f1 48  01  d0       ADD        RAX ,RDX
        001012f4 0f  b6  00       MOVZX      EAX ,byte ptr [RAX ]
        001012f7 0f  b6  c0       MOVZX      EAX ,AL
        001012fa eb  05           JMP        LAB_00101301
                             LAB_001012fc                                    XREF[1]:     001012df (j)   
        001012fc b8  00  00       MOV        EAX ,0x0
                 00  00
                             LAB_00101301                                    XREF[1]:     001012fa (j)   
        00101301 89  45  e0       MOV        dword ptr [RBP  + local_28 ],EAX
        00101304 8b  45  fc       MOV        EAX ,dword ptr [RBP  + local_c ]
        00101307 48  98           CDQE
        00101309 48  3b  45  c0    CMP        RAX ,qword ptr [RBP  + local_48 ]
        0010130d 73  1b           JNC        LAB_0010132a
        0010130f 8b  45  fc       MOV        EAX ,dword ptr [RBP  + local_c ]
        00101312 8d  50  01       LEA        EDX ,[RAX  + 0x1 ]
        00101315 89  55  fc       MOV        dword ptr [RBP  + local_c ],EDX
        00101318 48  63  d0       MOVSXD     RDX ,EAX
        0010131b 48  8b  45  c8    MOV        RAX ,qword ptr [RBP  + local_40 ]
        0010131f 48  01  d0       ADD        RAX ,RDX
        00101322 0f  b6  00       MOVZX      EAX ,byte ptr [RAX ]
        00101325 0f  b6  c0       MOVZX      EAX ,AL
        00101328 eb  05           JMP        LAB_0010132f
                             LAB_0010132a                                    XREF[1]:     0010130d (j)   
        0010132a b8  00  00       MOV        EAX ,0x0
                 00  00
                             LAB_0010132f                                    XREF[1]:     00101328 (j)   
        0010132f 89  45  dc       MOV        dword ptr [RBP  + local_2c ],EAX
        00101332 8b  45  fc       MOV        EAX ,dword ptr [RBP  + local_c ]
        00101335 48  98           CDQE
        00101337 48  3b  45  c0    CMP        RAX ,qword ptr [RBP  + local_48 ]
        0010133b 73  1b           JNC        LAB_00101358
        0010133d 8b  45  fc       MOV        EAX ,dword ptr [RBP  + local_c ]
        00101340 8d  50  01       LEA        EDX ,[RAX  + 0x1 ]
        00101343 89  55  fc       MOV        dword ptr [RBP  + local_c ],EDX
        00101346 48  63  d0       MOVSXD     RDX ,EAX
        00101349 48  8b  45  c8    MOV        RAX ,qword ptr [RBP  + local_40 ]
        0010134d 48  01  d0       ADD        RAX ,RDX
        00101350 0f  b6  00       MOVZX      EAX ,byte ptr [RAX ]
        00101353 0f  b6  c0       MOVZX      EAX ,AL
        00101356 eb  05           JMP        LAB_0010135d
                             LAB_00101358                                    XREF[1]:     0010133b (j)   
        00101358 b8  00  00       MOV        EAX ,0x0
                 00  00
                             LAB_0010135d                                    XREF[1]:     00101356 (j)   
        0010135d 89  45  d8       MOV        dword ptr [RBP  + local_30 ],EAX
        00101360 8b  45  e0       MOV        EAX ,dword ptr [RBP  + local_28 ]
        00101363 c1  e0  10       SHL        EAX ,0x10
        00101366 89  c2           MOV        EDX ,EAX
        00101368 8b  45  dc       MOV        EAX ,dword ptr [RBP  + local_2c ]
        0010136b c1  e0  08       SHL        EAX ,0x8
        0010136e 01  c2           ADD        EDX ,EAX
        00101370 8b  45  d8       MOV        EAX ,dword ptr [RBP  + local_30 ]
        00101373 01  d0           ADD        EAX ,EDX
        00101375 89  45  d4       MOV        dword ptr [RBP  + local_34 ],EAX
        00101378 8b  45  d4       MOV        EAX ,dword ptr [RBP  + local_34 ]
        0010137b c1  e8  12       SHR        EAX ,0x12
        0010137e 83  e0  3f       AND        EAX ,0x3f
        00101381 89  c1           MOV        ECX ,EAX
        00101383 8b  45  f8       MOV        EAX ,dword ptr [RBP  + local_10 ]
        00101386 8d  50  01       LEA        EDX ,[RAX  + 0x1 ]
        00101389 89  55  f8       MOV        dword ptr [RBP  + local_10 ],EDX
        0010138c 48  63  d0       MOVSXD     RDX ,EAX
        0010138f 48  8b  45  e8    MOV        RAX ,qword ptr [RBP  + local_20 ]
        00101393 48  01  c2       ADD        RDX ,RAX
        00101396 89  c9           MOV        ECX ,ECX
        00101398 48  8d  05       LEA        RAX ,[s_ABCDEFGHIJKLMNOPQRSTUVWXYZabcdef_001040  = "ABCDEFGHIJKLMNOPQRSTUVWXYZabc
                 81  2c  00  00
        0010139f 0f  b6  04  01    MOVZX      EAX =>s_ABCDEFGHIJKLMNOPQRSTUVWXYZabcdef_001040  = "ABCDEFGHIJKLMNOPQRSTUVWXYZabc
        001013a3 88  02           MOV        byte ptr [RDX ],AL
        001013a5 8b  45  d4       MOV        EAX ,dword ptr [RBP  + local_34 ]
        001013a8 c1  e8  0c       SHR        EAX ,0xc
        001013ab 83  e0  3f       AND        EAX ,0x3f
        001013ae 89  c1           MOV        ECX ,EAX
        001013b0 8b  45  f8       MOV        EAX ,dword ptr [RBP  + local_10 ]
        001013b3 8d  50  01       LEA        EDX ,[RAX  + 0x1 ]
        001013b6 89  55  f8       MOV        dword ptr [RBP  + local_10 ],EDX
        001013b9 48  63  d0       MOVSXD     RDX ,EAX
        001013bc 48  8b  45  e8    MOV        RAX ,qword ptr [RBP  + local_20 ]
        001013c0 48  01  c2       ADD        RDX ,RAX
        001013c3 89  c9           MOV        ECX ,ECX
        001013c5 48  8d  05       LEA        RAX ,[s_ABCDEFGHIJKLMNOPQRSTUVWXYZabcdef_001040  = "ABCDEFGHIJKLMNOPQRSTUVWXYZabc
                 54  2c  00  00
        001013cc 0f  b6  04  01    MOVZX      EAX =>s_ABCDEFGHIJKLMNOPQRSTUVWXYZabcdef_001040  = "ABCDEFGHIJKLMNOPQRSTUVWXYZabc
        001013d0 88  02           MOV        byte ptr [RDX ],AL
        001013d2 8b  45  d4       MOV        EAX ,dword ptr [RBP  + local_34 ]
        001013d5 c1  e8  06       SHR        EAX ,0x6
        001013d8 83  e0  3f       AND        EAX ,0x3f
        001013db 89  c1           MOV        ECX ,EAX
        001013dd 8b  45  f8       MOV        EAX ,dword ptr [RBP  + local_10 ]
        001013e0 8d  50  01       LEA        EDX ,[RAX  + 0x1 ]
        001013e3 89  55  f8       MOV        dword ptr [RBP  + local_10 ],EDX
        001013e6 48  63  d0       MOVSXD     RDX ,EAX
        001013e9 48  8b  45  e8    MOV        RAX ,qword ptr [RBP  + local_20 ]
        001013ed 48  01  c2       ADD        RDX ,RAX
        001013f0 89  c9           MOV        ECX ,ECX
        001013f2 48  8d  05       LEA        RAX ,[s_ABCDEFGHIJKLMNOPQRSTUVWXYZabcdef_001040  = "ABCDEFGHIJKLMNOPQRSTUVWXYZabc
                 27  2c  00  00
        001013f9 0f  b6  04  01    MOVZX      EAX =>s_ABCDEFGHIJKLMNOPQRSTUVWXYZabcdef_001040  = "ABCDEFGHIJKLMNOPQRSTUVWXYZabc
        001013fd 88  02           MOV        byte ptr [RDX ],AL
        001013ff 8b  45  d4       MOV        EAX ,dword ptr [RBP  + local_34 ]
        00101402 83  e0  3f       AND        EAX ,0x3f
        00101405 89  c1           MOV        ECX ,EAX
        00101407 8b  45  f8       MOV        EAX ,dword ptr [RBP  + local_10 ]
        0010140a 8d  50  01       LEA        EDX ,[RAX  + 0x1 ]
        0010140d 89  55  f8       MOV        dword ptr [RBP  + local_10 ],EDX
        00101410 48  63  d0       MOVSXD     RDX ,EAX
        00101413 48  8b  45  e8    MOV        RAX ,qword ptr [RBP  + local_20 ]
        00101417 48  01  c2       ADD        RDX ,RAX
        0010141a 89  c9           MOV        ECX ,ECX
        0010141c 48  8d  05       LEA        RAX ,[s_ABCDEFGHIJKLMNOPQRSTUVWXYZabcdef_001040  = "ABCDEFGHIJKLMNOPQRSTUVWXYZabc
                 fd  2b  00  00
        00101423 0f  b6  04  01    MOVZX      EAX =>s_ABCDEFGHIJKLMNOPQRSTUVWXYZabcdef_001040  = "ABCDEFGHIJKLMNOPQRSTUVWXYZabc
        00101427 88  02           MOV        byte ptr [RDX ],AL
                             LAB_00101429                                    XREF[1]:     001012d1 (j)   
        00101429 8b  45  fc       MOV        EAX ,dword ptr [RBP  + local_c ]
        0010142c 48  98           CDQE
        0010142e 48  3b  45  c0    CMP        RAX ,qword ptr [RBP  + local_48 ]
        00101432 0f  82  9e       JC         LAB_001012d6
                 fe  ff  ff
        00101438 48  8b  4d  c0    MOV        RCX ,qword ptr [RBP  + local_48 ]
        0010143c 48  ba  ab       MOV        RDX ,-0x5555555555555555
                 aa  aa  aa 
                 aa  aa  aa  aa
        00101446 48  89  c8       MOV        RAX ,RCX
        00101449 48  f7  e2       MUL        RDX
        0010144c 48  d1  ea       SHR        RDX ,0x1
        0010144f 48  89  d0       MOV        RAX ,RDX
        00101452 48  01  c0       ADD        RAX ,RAX
        00101455 48  01  d0       ADD        RAX ,RDX
        00101458 48  29  c1       SUB        RCX ,RAX
        0010145b 48  89  ca       MOV        RDX ,RCX
        0010145e 89  55  e4       MOV        dword ptr [RBP  + local_24 ],EDX
        00101461 83  7d  e4  00    CMP        dword ptr [RBP  + local_24 ],0x0
        00101465 74  2c           JZ         LAB_00101493
        00101467 8b  45  f4       MOV        EAX ,dword ptr [RBP  + local_14 ]
        0010146a 48  98           CDQE
        0010146c 48  8d  50  ff    LEA        RDX ,[RAX  + -0x1 ]
        00101470 48  8b  45  e8    MOV        RAX ,qword ptr [RBP  + local_20 ]
        00101474 48  01  d0       ADD        RAX ,RDX
        00101477 c6  00  3d       MOV        byte ptr [RAX ],0x3d
        0010147a 83  7d  e4  01    CMP        dword ptr [RBP  + local_24 ],0x1
        0010147e 75  13           JNZ        LAB_00101493
        00101480 8b  45  f4       MOV        EAX ,dword ptr [RBP  + local_14 ]
        00101483 48  98           CDQE
        00101485 48  8d  50  fe    LEA        RDX ,[RAX  + -0x2 ]
        00101489 48  8b  45  e8    MOV        RAX ,qword ptr [RBP  + local_20 ]
        0010148d 48  01  d0       ADD        RAX ,RDX
        00101490 c6  00  3d       MOV        byte ptr [RAX ],0x3d
                             LAB_00101493                                    XREF[2]:     00101465 (j) , 0010147e (j)   
        00101493 8b  45  f4       MOV        EAX ,dword ptr [RBP  + local_14 ]
        00101496 48  63  d0       MOVSXD     RDX ,EAX
        00101499 48  8b  45  e8    MOV        RAX ,qword ptr [RBP  + local_20 ]
        0010149d 48  01  d0       ADD        RAX ,RDX
        001014a0 c6  00  00       MOV        byte ptr [RAX ],0x0
        001014a3 48  8b  45  e8    MOV        RAX ,qword ptr [RBP  + local_20 ]
                             LAB_001014a7                                    XREF[1]:     001012be (j)   
        001014a7 c9              LEAVE
        001014a8 c3              RET
                             *************************************************************
                             *                           FUNCTION                          
                             *************************************************************
                             undefined  FUN_001014a9 ()
             undefined         AL:1           <RETURN>
                             FUN_001014a9                                    XREF[3]:     FUN_001014f0:0010152b (c) , 
                                                                                          00102068 , 00102128 (*)   
        001014a9 f3  0f  1e  fa    ENDBR64
        001014ad 55              PUSH       RBP
        001014ae 48  89  e5       MOV        RBP ,RSP
        001014b1 48  8b  05       MOV        RAX ,qword ptr [stdin ]
                 c8  2b  00  00
        001014b8 b9  00  00       MOV        ECX ,0x0
                 00  00
        001014bd ba  02  00       MOV        EDX ,0x2
                 00  00
        001014c2 be  00  00       MOV        ESI ,0x0
                 00  00
        001014c7 48  89  c7       MOV        RDI ,RAX
        001014ca e8  81  fc       CALL       <EXTERNAL>::setvbuf                              int setvbuf(FILE * __stream, cha
                 ff  ff
        001014cf 48  8b  05       MOV        RAX ,qword ptr [stdout ]
                 9a  2b  00  00
        001014d6 b9  00  00       MOV        ECX ,0x0
                 00  00
        001014db ba  02  00       MOV        EDX ,0x2
                 00  00
        001014e0 be  00  00       MOV        ESI ,0x0
                 00  00
        001014e5 48  89  c7       MOV        RDI ,RAX
        001014e8 e8  63  fc       CALL       <EXTERNAL>::setvbuf                              int setvbuf(FILE * __stream, cha
                 ff  ff
        001014ed 90              NOP
        001014ee 5d              POP        RBP
        001014ef c3              RET
                             *************************************************************
                             *                           FUNCTION                          
                             *************************************************************
                             undefined  FUN_001014f0 ()
             undefined         AL:1           <RETURN>
             undefined4        Stack[-0xc]:4  local_c                                 XREF[2]:     001015a4 (W) , 
                                                                                                   001015a7 (R)   
             undefined8        Stack[-0x18]:8 local_18                                XREF[3]:     001015bf (W) , 
                                                                                                   001015c3 (R) , 
                                                                                                   001015e2 (R)   
             undefined8        Stack[-0x20]:8 local_20                                XREF[1]:     0010151e (W)   
             undefined8        Stack[-0x28]:8 local_28                                XREF[1]:     00101516 (W)   
             undefined8        Stack[-0x30]:8 local_30                                XREF[1]:     00101512 (W)   
             undefined8        Stack[-0x38]:8 local_38                                XREF[2]:     0010150e (W) , 
                                                                                                   001015fe (*)   
             undefined1        Stack[-0x78]:1 local_78                                XREF[2]:     001015c7 (*) , 
                                                                                                   001015d6 (*)   
             undefined1        Stack[-0xb8]:1 local_b8                                XREF[2]:     0010158b (*) , 
                                                                                                   001015ad (*)   
             undefined4        Stack[-0xbc]:4 local_bc                                XREF[3]:     00101562 (*) , 
                                                                                                   00101580 (R) , 
                                                                                                   001015f3 (R)   
                             FUN_001014f0                                    XREF[3]:     entry:00101198 (*) , 00102070 , 
                                                                                          00102148 (*)   
        001014f0 f3  0f  1e  fa    ENDBR64
        001014f4 55              PUSH       RBP
        001014f5 48  89  e5       MOV        RBP ,RSP
        001014f8 48  81  ec       SUB        RSP ,0xc0
                 c0  00  00  00
        001014ff 48  b8  65       MOV        RAX ,0x657962206f686365
                 63  68  6f 
                 20  62  79  65
        00101509 ba  00  00       MOV        EDX ,0x0
                 00  00
        0010150e 48  89  45  d0    MOV        qword ptr [RBP  + local_38 ],RAX
        00101512 48  89  55  d8    MOV        qword ptr [RBP  + local_30 ],RDX
        00101516 48  c7  45       MOV        qword ptr [RBP  + local_28 ],0x0
                 e0  00  00 
                 00  00
        0010151e 48  c7  45       MOV        qword ptr [RBP  + local_20 ],0x0
                 e8  00  00 
                 00  00
        00101526 b8  00  00       MOV        EAX ,0x0
                 00  00
        0010152b e8  79  ff       CALL       FUN_001014a9                                     undefined FUN_001014a9()
                 ff  ff
                             LAB_00101530                                    XREF[1]:     001015ee (j)   
        00101530 48  8d  05       LEA        RAX ,[s_[1]_Base64_Encode_00102004 ]              = "[1] Base64 Encode"
                 cd  0a  00  00
        00101537 48  89  c7       MOV        RDI =>s_[1]_Base64_Encode_00102004 ,RAX           = "[1] Base64 Encode"
        0010153a e8  c1  fb       CALL       <EXTERNAL>::puts                                 int puts(char * __s)
                 ff  ff
        0010153f 48  8d  05       LEA        RAX ,[s_[2]_Exit_00102016 ]                       = "[2] Exit"
                 d0  0a  00  00
        00101546 48  89  c7       MOV        RDI =>s_[2]_Exit_00102016 ,RAX                    = "[2] Exit"
        00101549 e8  b2  fb       CALL       <EXTERNAL>::puts                                 int puts(char * __s)
                 ff  ff
        0010154e 48  8d  05       LEA        RAX ,[DAT_0010201f ]                              = 3Eh    >
                 ca  0a  00  00
        00101555 48  89  c7       MOV        RDI =>DAT_0010201f ,RAX                           = 3Eh    >
        00101558 b8  00  00       MOV        EAX ,0x0
                 00  00
        0010155d e8  be  fb       CALL       <EXTERNAL>::printf                               int printf(char * __format, ...)
                 ff  ff
        00101562 48  8d  85       LEA        RAX =>local_bc ,[RBP  + -0xb4 ]
                 4c  ff  ff  ff
        00101569 48  89  c6       MOV        RSI ,RAX
        0010156c 48  8d  05       LEA        RAX ,[DAT_00102022 ]                              = 25h    %
                 af  0a  00  00
        00101573 48  89  c7       MOV        RDI =>DAT_00102022 ,RAX                           = 25h    %
        00101576 b8  00  00       MOV        EAX ,0x0
                 00  00
        0010157b e8  e0  fb       CALL       <EXTERNAL>::__isoc99_scanf                       undefined __isoc99_scanf()
                 ff  ff
        00101580 8b  85  4c       MOV        EAX ,dword ptr [RBP  + local_bc ]
                 ff  ff  ff
        00101586 83  f8  01       CMP        EAX ,0x1
        00101589 75  68           JNZ        LAB_001015f3
        0010158b 48  8d  85       LEA        RAX =>local_b8 ,[RBP  + -0xb0 ]
                 50  ff  ff  ff
        00101592 ba  40  00       MOV        EDX ,0x40
                 00  00
        00101597 48  89  c6       MOV        RSI ,RAX
        0010159a bf  00  00       MOV        EDI ,0x0
                 00  00
        0010159f e8  8c  fb       CALL       <EXTERNAL>::read                                 ssize_t read(int __fd, void * __
                 ff  ff
        001015a4 89  45  fc       MOV        dword ptr [RBP  + local_c ],EAX
        001015a7 8b  45  fc       MOV        EAX ,dword ptr [RBP  + local_c ]
        001015aa 48  63  d0       MOVSXD     RDX ,EAX
        001015ad 48  8d  85       LEA        RAX =>local_b8 ,[RBP  + -0xb0 ]
                 50  ff  ff  ff
        001015b4 48  89  d6       MOV        RSI ,RDX
        001015b7 48  89  c7       MOV        RDI ,RAX
        001015ba e8  aa  fc       CALL       FUN_00101269                                     undefined FUN_00101269()
                 ff  ff
        001015bf 48  89  45  f0    MOV        qword ptr [RBP  + local_18 ],RAX
        001015c3 48  8b  55  f0    MOV        RDX ,qword ptr [RBP  + local_18 ]
        001015c7 48  8d  45  90    LEA        RAX =>local_78 ,[RBP  + -0x70 ]
        001015cb 48  89  d6       MOV        RSI ,RDX
        001015ce 48  89  c7       MOV        RDI ,RAX
        001015d1 e8  1a  fb       CALL       <EXTERNAL>::strcpy                               char * strcpy(char * __dest, cha
                 ff  ff
        001015d6 48  8d  45  90    LEA        RAX =>local_78 ,[RBP  + -0x70 ]
        001015da 48  89  c7       MOV        RDI ,RAX
        001015dd e8  1e  fb       CALL       <EXTERNAL>::puts                                 int puts(char * __s)
                 ff  ff
        001015e2 48  8b  45  f0    MOV        RAX ,qword ptr [RBP  + local_18 ]
        001015e6 48  89  c7       MOV        RDI ,RAX
        001015e9 e8  f2  fa       CALL       <EXTERNAL>::free                                 void free(void * __ptr)
                 ff  ff
        001015ee e9  3d  ff       JMP        LAB_00101530
                 ff  ff
                             LAB_001015f3                                    XREF[1]:     00101589 (j)   
        001015f3 8b  85  4c       MOV        EAX ,dword ptr [RBP  + local_bc ]
                 ff  ff  ff
        001015f9 83  f8  02       CMP        EAX ,0x2
        001015fc 75  13           JNZ        LAB_00101611
        001015fe 48  8d  45  d0    LEA        RAX =>local_38 ,[RBP  + -0x30 ]
        00101602 48  89  c7       MOV        RDI ,RAX
        00101605 e8  06  fb       CALL       <EXTERNAL>::system                               int system(char * __command)
                 ff  ff
        0010160a b8  00  00       MOV        EAX ,0x0
                 00  00
        0010160f eb  19           JMP        LAB_0010162a
                             LAB_00101611                                    XREF[1]:     001015fc (j)   
        00101611 48  8d  05       LEA        RAX ,[s_Invalid_input_00102025 ]                  = "Invalid input"
                 0d  0a  00  00
        00101618 48  89  c7       MOV        RDI =>s_Invalid_input_00102025 ,RAX               = "Invalid input"
        0010161b e8  e0  fa       CALL       <EXTERNAL>::puts                                 int puts(char * __s)
                 ff  ff
        00101620 bf  ff  ff       MOV        EDI ,0xffffffff
                 ff  ff
        00101625 e8  46  fb       CALL       <EXTERNAL>::exit                                 void exit(int __status)
                 ff  ff
                             -- Flow Override: CALL_RETURN (CALL_TERMINATOR)
                             LAB_0010162a                                    XREF[1]:     0010160f (j)   
        0010162a c9              LEAVE
        0010162b c3              RET
                             //
                             // .fini 
                             // SHT_PROGBITS  [0x162c - 0x1638]
                             // ram:0010162c-ram:00101638
                             //
                             *************************************************************
                             *                           FUNCTION                          
                             *************************************************************
                             undefined  _DT_FINI ()
             undefined         AL:1           <RETURN>
                             __DT_FINI                                       XREF[3]:     Entry Point (*) , 00103da8 (*) , 
                             _DT_FINI                                                     _elfSectionHeaders::00000450 (*)   
        0010162c f3  0f  1e  fa    ENDBR64
        00101630 48  83  ec  08    SUB        RSP ,0x8
        00101634 48  83  c4  08    ADD        RSP ,0x8
        00101638 c3              RET
                             //
                             // .rodata 
                             // SHT_PROGBITS  [0x2000 - 0x2032]
                             // ram:00102000-ram:00102032
                             //
                             DAT_00102000                                    XREF[2]:     00100130 (*) , 
                                                                                          _elfSectionHeaders::00000490 (*)   
        00102000 01              ??         01h
        00102001 00              ??         00h
        00102002 02              ??         02h
        00102003 00              ??         00h
                             s_[1]_Base64_Encode_00102004                    XREF[2]:     FUN_001014f0:00101530 (*) , 
                                                                                          FUN_001014f0:00101537 (*)   
        00102004 5b  31  5d       ds         "[1] Base64 Encode"
                 20  42  61 
                 73  65  36 
                             s_[2]_Exit_00102016                             XREF[2]:     FUN_001014f0:0010153f (*) , 
                                                                                          FUN_001014f0:00101546 (*)   
        00102016 5b  32  5d       ds         "[2] Exit"
                 20  45  78 
                 69  74  00
                             DAT_0010201f                                    XREF[2]:     FUN_001014f0:0010154e (*) , 
                                                                                          FUN_001014f0:00101555 (*)   
        0010201f 3e              ??         3Eh    >
        00102020 20              ??         20h     
        00102021 00              ??         00h
                             DAT_00102022                                    XREF[2]:     FUN_001014f0:0010156c (*) , 
                                                                                          FUN_001014f0:00101573 (*)   
        00102022 25              ??         25h    %
        00102023 64              ??         64h    d
        00102024 00              ??         00h
                             s_Invalid_input_00102025                        XREF[2]:     FUN_001014f0:00101611 (*) , 
                                                                                          FUN_001014f0:00101618 (*)   
        00102025 49  6e  76       ds         "Invalid input"
                 61  6c  69 
                 64  20  69 
                             //
                             // .eh_frame_hdr 
                             // SHT_PROGBITS  [0x2034 - 0x2077]
                             // ram:00102034-ram:00102077
                             //
                             *************************************************************
                             * Exception Handler Frame Header                             
                             *************************************************************
                             eh_frame_hdr_00102034                           XREF[2]:     00100280 (*) , 
                                                                                          _elfSectionHeaders::000004d0 (*)   
        00102034 01  1b  03  3b    eh_frame                                                    Exception Handler Frame Header V
        00102038 40  00  00  00    ddw        cie_00102078                                     Encoded eh_frame_ptr
        0010203c 07  00  00  00    ddw        7h                                               Encoded FDE count
                             *************************************************************
                             * Frame Description Entry Table                              
                             *************************************************************
        00102040 ec  ef  ff       fde_tabl                                                    Initial Location
                 ff  74  00 
                 00  00
        00102048 9c  f0  ff       fde_tabl                                                    Initial Location
                 ff  9c  00 
                 00  00
        00102050 ac  f0  ff       fde_tabl                                                    Initial Location
                 ff  b4  00 
                 00  00
        00102058 4c  f1  ff       fde_tabl                                                    Initial Location
                 ff  5c  00 
                 00  00
        00102060 35  f2  ff       fde_tabl
                 ff  cc  00 
                 00  00
           00102060 35  f2  ff  ff    ddw       FUN_00101269            initial_loc   Initial Location
           00102064 cc  00  00  00    ddw       fde_00102100            data_loc      Data location
        00102068 75  f4  ff       fde_tabl                                                    Initial Location
                 ff  ec  00 
                 00  00
        00102070 bc  f4  ff       fde_tabl
                 ff  0c  01 
                 00  00
           00102070 bc  f4  ff  ff    ddw       FUN_001014f0            initial_loc   Initial Location
           00102074 0c  01  00  00    ddw       fde_00102140            data_loc      Data location
                             //
                             // .eh_frame 
                             // SHT_PROGBITS  [0x2078 - 0x2163]
                             // ram:00102078-ram:00102163
                             //
                             *************************************************************
                             * Common Information Entry                                   
                             *************************************************************
                             cie_00102078                                    XREF[9]:     00102038 (*) , 00102094 (*) , 
                                                                                          001020ac (*) , 001020d4 (*) , 
                                                                                          001020ec (*) , 00102104 (*) , 
                                                                                          00102124 (*) , 00102144 (*) , 
                                                                                          _elfSectionHeaders::00000510 (*)   
        00102078 14  00  00  00    ddw        14h                                              (CIE) Length
        0010207c 00  00  00  00    ddw        0h                                               (CIE) ID
        00102080 01              db         1h                                               (CIE) Version
        00102081 7a  52  00       ds         "zR"                                             (CIE) Augmentation String
        00102084 01              uleb128    1h                                               (CIE) Code Alignment
        00102085 78              sleb128    -8h                                              (CIE) Data Alignment
        00102086 10              db         10h                                              (CIE) Return Address Register Co
        00102087 01              uleb128    1h                                               (CIE) Augmentation Data Length
        00102088 1b              dwfenc     DW_EH_PE_sdata4 | DW_EH_PE_pcrel                 (CIE Augmentation Data) FDE Enco
        00102089 0c  07  08       db[7]                                                       (CIE) Initial Instructions
                 90  01  00  00
                             *************************************************************
                             * Frame Descriptor Entry                                     
                             *************************************************************
                             fde_00102090                                    XREF[1]:     0010205c (*)   
        00102090 14  00  00  00    ddw        14h                                              (FDE) Length
        00102094 1c  00  00  00    ddw        cie_00102078                                     (FDE) CIE Reference Pointer 
        00102098 e8  f0  ff  ff    ddw        entry                                            (FDE) PcBegin
        0010209c 26  00  00  00    ddw        26h                                              (FDE) PcRange
        001020a0 00              uleb128    0h                                               (FDE) Augmentation Data Length
        001020a1 44  07  10       db[7]                                                       (FDE) Call Frame Instructions
                 00  00  00  00
                             *************************************************************
                             * Frame Descriptor Entry                                     
                             *************************************************************
                             fde_001020a8                                    XREF[1]:     00102044 (*)   
        001020a8 24  00  00  00    ddw        24h                                              (FDE) Length
        001020ac 34  00  00  00    ddw        cie_00102078                                     (FDE) CIE Reference Pointer 
        001020b0 70  ef  ff  ff    ddw        FUN_00101020                                     (FDE) PcBegin
        001020b4 b0  00  00  00    ddw        B0h                                              (FDE) PcRange
        001020b8 00              uleb128    0h                                               (FDE) Augmentation Data Length
        001020b9 0e  10  46       db[23]
                 0e  18  4a 
                 0f  0b  77 
           001020b9 [0]             Eh,  10h,  46h,   Eh,
           001020bd [4]            18h,  4Ah,   Fh,   Bh,
           001020c1 [8]            77h,   8h,  80h,   0h,
           001020c5 [12]           3Fh,  1Ah,  39h,  2Ah,
           001020c9 [16]           33h,  24h,  22h,   0h,
           001020cd [20]            0h,   0h,   0h
                             *************************************************************
                             * Frame Descriptor Entry                                     
                             *************************************************************
                             fde_001020d0                                    XREF[1]:     0010204c (*)   
        001020d0 14  00  00  00    ddw        14h                                              (FDE) Length
        001020d4 5c  00  00  00    ddw        cie_00102078                                     (FDE) CIE Reference Pointer 
        001020d8 f8  ef  ff  ff    ddw        <EXTERNAL>::__cxa_finalize                       (FDE) PcBegin
        001020dc 10  00  00       dq         10h                                              (FDE) PcRange
                 00  00  00 
                 00  00
        001020e4 00              uleb128    0h                                               (FDE) Augmentation Data Length
        001020e5 00  00  00       db[3]                                                       (FDE) Call Frame Instructions
                             *************************************************************
                             * Frame Descriptor Entry                                     
                             *************************************************************
                             fde_001020e8                                    XREF[1]:     00102054 (*)   
        001020e8 14  00  00  00    ddw        14h                                              (FDE) Length
        001020ec 74  00  00  00    ddw        cie_00102078                                     (FDE) CIE Reference Pointer 
        001020f0 f0  ef  ff  ff    ddw        <EXTERNAL>::free                                 (FDE) PcBegin
        001020f4 a0  00  00       dq         A0h                                              (FDE) PcRange
                 00  00  00 
                 00  00
        001020fc 00              uleb128    0h                                               (FDE) Augmentation Data Length
        001020fd 00  00  00       db[3]                                                       (FDE) Call Frame Instructions
                             *************************************************************
                             * Frame Descriptor Entry                                     
                             *************************************************************
                             fde_00102100                                    XREF[1]:     00102064 (*)   
        00102100 1c  00  00  00    ddw        1Ch                                              (FDE) Length
        00102104 8c  00  00  00    ddw        cie_00102078                                     (FDE) CIE Reference Pointer 
        00102108 61  f1  ff  ff    ddw        FUN_00101269                                     (FDE) PcBegin
        0010210c 40  02  00  00    ddw        240h                                             (FDE) PcRange
        00102110 00              uleb128    0h                                               (FDE) Augmentation Data Length
        00102111 45  0e  10       db[15]                                                      (FDE) Call Frame Instructions
                 86  02  43 
                 0d  06  03 
                             *************************************************************
                             * Frame Descriptor Entry                                     
                             *************************************************************
                             fde_00102120                                    XREF[1]:     0010206c (*)   
        00102120 1c  00  00  00    ddw        1Ch                                              (FDE) Length
        00102124 ac  00  00  00    ddw        cie_00102078                                     (FDE) CIE Reference Pointer 
        00102128 81  f3  ff  ff    ddw        FUN_001014a9                                     (FDE) PcBegin
        0010212c 47  00  00  00    ddw        47h                                              (FDE) PcRange
        00102130 00              uleb128    0h                                               (FDE) Augmentation Data Length
        00102131 45  0e  10       db[15]
                 86  02  43 
                 0d  06  7e 
           00102131 [0]            45h,   Eh,  10h,  86h,
           00102135 [4]             2h,  43h,   Dh,   6h,
           00102139 [8]            7Eh,   Ch,   7h,   8h,
           0010213d [12]            0h,   0h,   0h
                             *************************************************************
                             * Frame Descriptor Entry                                     
                             *************************************************************
                             fde_00102140                                    XREF[1]:     00102074 (*)   
        00102140 1c  00  00  00    ddw        1Ch                                              (FDE) Length
        00102144 cc  00  00  00    ddw        cie_00102078                                     (FDE) CIE Reference Pointer 
        00102148 a8  f3  ff  ff    ddw        FUN_001014f0                                     (FDE) PcBegin
        0010214c 3c  01  00  00    ddw        13Ch                                             (FDE) PcRange
        00102150 00              uleb128    0h                                               (FDE) Augmentation Data Length
        00102151 45  0e  10       db[15]
                 86  02  43 
                 0d  06  03 
           00102151 [0]            45h,   Eh,  10h,  86h,
           00102155 [4]             2h,  43h,   Dh,   6h,
           00102159 [8]             3h,  33h,   1h,   Ch,
           0010215d [12]            7h,   8h,   0h
                             *************************************************************
                             * END OF FRAME                                               
                             *************************************************************
        00102160 00  00  00  00    ddw        0h                                               End of Frame
                             //
                             // .init_array 
                             // SHT_INIT_ARRAY  [0x3d70 - 0x3d77]
                             // ram:00103d70-ram:00103d77
                             //
                             __DT_INIT_ARRAY                                 XREF[4]:     00100168 (*) , 001002f0 (*) , 
                                                                                          00103db8 (*) , 
                                                                                          _elfSectionHeaders::00000550 (*)   
        00103d70 60  12  10       addr       _INIT_0
                 00  00  00 
                 00  00
                             //
                             // .fini_array 
                             // SHT_FINI_ARRAY  [0x3d78 - 0x3d7f]
                             // ram:00103d78-ram:00103d7f
                             //
                             __DT_FINI_ARRAY                                 XREF[2]:     00103dd8 (*) , 
                                                                                          _elfSectionHeaders::00000590 (*)   
        00103d78 20  12  10       addr       _FINI_0
                 00  00  00 
                 00  00
                             //
                             // .dynamic 
                             // SHT_DYNAMIC  [0x3d80 - 0x3f6f]
                             // ram:00103d80-ram:00103f6f
                             //
                             _DYNAMIC                                        XREF[3]:     001001a0 (*) , 00103f70 (*) , 
                                                                                          _elfSectionHeaders::000005d0 (*)   
        00103d80 01  00  00       Elf64_Dy                                                    DT_NEEDED - Name of needed libra
                 00  00  00 
                 00  00  76 
        00103f30 00              ??         00h
        00103f31 00              ??         00h
        00103f32 00              ??         00h
        00103f33 00              ??         00h
        00103f34 00              ??         00h
        00103f35 00              ??         00h
        00103f36 00              ??         00h
        00103f37 00              ??         00h
        00103f38 00              ??         00h
        00103f39 00              ??         00h
        00103f3a 00              ??         00h
        00103f3b 00              ??         00h
        00103f3c 00              ??         00h
        00103f3d 00              ??         00h
        00103f3e 00              ??         00h
        00103f3f 00              ??         00h
        00103f40 00              ??         00h
        00103f41 00              ??         00h
        00103f42 00              ??         00h
        00103f43 00              ??         00h
        00103f44 00              ??         00h
        00103f45 00              ??         00h
        00103f46 00              ??         00h
        00103f47 00              ??         00h
        00103f48 00              ??         00h
        00103f49 00              ??         00h
        00103f4a 00              ??         00h
        00103f4b 00              ??         00h
        00103f4c 00              ??         00h
        00103f4d 00              ??         00h
        00103f4e 00              ??         00h
        00103f4f 00              ??         00h
        00103f50 00              ??         00h
        00103f51 00              ??         00h
        00103f52 00              ??         00h
        00103f53 00              ??         00h
        00103f54 00              ??         00h
        00103f55 00              ??         00h
        00103f56 00              ??         00h
        00103f57 00              ??         00h
        00103f58 00              ??         00h
        00103f59 00              ??         00h
        00103f5a 00              ??         00h
        00103f5b 00              ??         00h
        00103f5c 00              ??         00h
        00103f5d 00              ??         00h
        00103f5e 00              ??         00h
        00103f5f 00              ??         00h
        00103f60 00              ??         00h
        00103f61 00              ??         00h
        00103f62 00              ??         00h
        00103f63 00              ??         00h
        00103f64 00              ??         00h
        00103f65 00              ??         00h
        00103f66 00              ??         00h
        00103f67 00              ??         00h
        00103f68 00              ??         00h
        00103f69 00              ??         00h
        00103f6a 00              ??         00h
        00103f6b 00              ??         00h
        00103f6c 00              ??         00h
        00103f6d 00              ??         00h
        00103f6e 00              ??         00h
        00103f6f 00              ??         00h
                             //
                             // .got 
                             // SHT_PROGBITS  [0x3f70 - 0x3fff]
                             // ram:00103f70-ram:00103fff
                             //
                             __DT_PLTGOT                                     XREF[2]:     00103e58 (*) , 
                                                                                          _elfSectionHeaders::00000610 (*)   
        00103f70 80  3d  10       addr       _DYNAMIC
                 00  00  00 
                 00  00
                             PTR_00103f78                                    XREF[1]:     FUN_00101020:00101020 (R)   
        00103f78 00  00  00       addr       00000000
                 00  00  00 
                 00  00
                             PTR_00103f80                                    XREF[1]:     FUN_00101020:00101026   
        00103f80 00  00  00       addr       00000000
                 00  00  00 
                 00  00
                             PTR_free_00103f88                               XREF[1]:     free:001010e4   
        00103f88 00  50  10       addr       <EXTERNAL>::free                                 = ??
                 00  00  00 
                 00  00
                             PTR_strcpy_00103f90                             XREF[1]:     strcpy:001010f4   
        00103f90 18  50  10       addr       <EXTERNAL>::strcpy                               = ??
                 00  00  00 
                 00  00
                             PTR_puts_00103f98                               XREF[1]:     puts:00101104   
        00103f98 20  50  10       addr       <EXTERNAL>::puts                                 = ??
                 00  00  00 
                 00  00
                             PTR_system_00103fa0                             XREF[1]:     system:00101114   
        00103fa0 28  50  10       addr       <EXTERNAL>::system                               = ??
                 00  00  00 
                 00  00
                             PTR_printf_00103fa8                             XREF[1]:     printf:00101124   
        00103fa8 30  50  10       addr       <EXTERNAL>::printf                               = ??
                 00  00  00 
                 00  00
                             PTR_read_00103fb0                               XREF[1]:     read:00101134   
        00103fb0 38  50  10       addr       <EXTERNAL>::read                                 = ??
                 00  00  00 
                 00  00
                             PTR_malloc_00103fb8                             XREF[1]:     malloc:00101144   
        00103fb8 48  50  10       addr       <EXTERNAL>::malloc                               = ??
                 00  00  00 
                 00  00
                             PTR_setvbuf_00103fc0                            XREF[1]:     setvbuf:00101154   
        00103fc0 50  50  10       addr       <EXTERNAL>::setvbuf                              = ??
                 00  00  00 
                 00  00
                             PTR___isoc99_scanf_00103fc8                     XREF[1]:     __isoc99_scanf:00101164   
        00103fc8 58  50  10       addr       <EXTERNAL>::__isoc99_scanf                       = ??
                 00  00  00 
                 00  00
                             PTR_exit_00103fd0                               XREF[1]:     exit:00101174   
        00103fd0 60  50  10       addr       <EXTERNAL>::exit                                 = ??
                 00  00  00 
                 00  00
                             PTR___libc_start_main_00103fd8                  XREF[1]:     entry:0010119f (R)   
        00103fd8 08  50  10       addr       <EXTERNAL>::__libc_start_main                    = ??
                 00  00  00 
                 00  00
                             PTR__ITM_deregisterTMCloneTable_00103fe0        XREF[1]:     FUN_001011b0:001011c3 (R)   
        00103fe0 10  50  10       addr       <EXTERNAL>::_ITM_deregisterTMCloneTable          = ??
                 00  00  00 
                 00  00
                             PTR___gmon_start___00103fe8                     XREF[1]:     _DT_INIT:00101008 (R)   
        00103fe8 40  50  10       addr       <EXTERNAL>::__gmon_start__                       = ??
                 00  00  00 
                 00  00
                             PTR__ITM_registerTMCloneTable_00103ff0          XREF[1]:     FUN_001011e0:00101204 (R)   
        00103ff0 68  50  10       addr       <EXTERNAL>::_ITM_registerTMCloneTable            = ??
                 00  00  00 
                 00  00
                             PTR___cxa_finalize_00103ff8                     XREF[2]:     __cxa_finalize:001010d4 , 
                                                                                          _FINI_0:0010122e (R)   
        00103ff8 70  50  10       addr       <EXTERNAL>::__cxa_finalize                       = ??
                 00  00  00 
                 00  00
                             //
                             // .data 
                             // SHT_PROGBITS  [0x4000 - 0x4060]
                             // ram:00104000-ram:00104060
                             //
                             DAT_00104000                                    XREF[1]:     _elfSectionHeaders::00000650 (*)   
        00104000 00              ??         00h
        00104001 00              ??         00h
        00104002 00              ??         00h
        00104003 00              ??         00h
        00104004 00              ??         00h
        00104005 00              ??         00h
        00104006 00              ??         00h
        00104007 00              ??         00h
                             PTR_LOOP_00104008                               XREF[2]:     _FINI_0:0010123b (R) , 
                                                                                          00104008 (*)   
        00104008 08  40  10       addr       PTR_LOOP_00104008                                = 00104008
                 00  00  00 
                 00  00
        00104010 00              ??         00h
        00104011 00              ??         00h
        00104012 00              ??         00h
        00104013 00              ??         00h
        00104014 00              ??         00h
        00104015 00              ??         00h
        00104016 00              ??         00h
        00104017 00              ??         00h
        00104018 00              ??         00h
        00104019 00              ??         00h
        0010401a 00              ??         00h
        0010401b 00              ??         00h
        0010401c 00              ??         00h
        0010401d 00              ??         00h
        0010401e 00              ??         00h
        0010401f 00              ??         00h
                             s_ABCDEFGHIJKLMNOPQRSTUVWXYZabcdef_00104020     XREF[8]:     FUN_00101269:00101398 (*) , 
                                                                                          FUN_00101269:0010139f (*) , 
                                                                                          FUN_00101269:001013c5 (*) , 
                                                                                          FUN_00101269:001013cc (*) , 
                                                                                          FUN_00101269:001013f2 (*) , 
                                                                                          FUN_00101269:001013f9 (*) , 
                                                                                          FUN_00101269:0010141c (*) , 
                                                                                          FUN_00101269:00101423 (*)   
        00104020 41  42  43       ds         "ABCDEFGHIJKLMNOPQRSTUVWXYZabcdefghijklmnopqrs
                 44  45  46 
                 47  48  49 
                             //
                             // .bss 
                             // SHT_NOBITS  [0x4070 - 0x408f]
                             // ram:00104070-ram:0010408f
                             //
                             stdout                                          XREF[3]:     Entry Point (*) , 
                                                                                          FUN_001014a9:001014cf (R) , 
                                                                                          _elfSectionHeaders::00000690 (*)   
        00104070 00  00  00       undefine   0000000000000000h
                 00  00  00 
                 00  00
        00104078 00              ??         00h
        00104079 00              ??         00h
        0010407a 00              ??         00h
        0010407b 00              ??         00h
        0010407c 00              ??         00h
        0010407d 00              ??         00h
        0010407e 00              ??         00h
        0010407f 00              ??         00h
                             stdin                                           XREF[2]:     Entry Point (*) , 
                                                                                          FUN_001014a9:001014b1 (R)   
        00104080 00  00  00       undefine   0000000000000000h
                 00  00  00 
                 00  00
                             DAT_00104088                                    XREF[2]:     _FINI_0:00101224 (R) , 
                                                                                          _FINI_0:0010124c (W)   
        00104088 00              ??         00h
        00104089 00              ??         00h
        0010408a 00              ??         00h
        0010408b 00              ??         00h
        0010408c 00              ??         00h
        0010408d 00              ??         00h
        0010408e 00              ??         00h
        0010408f 00              ??         00h
                             //
                             // EXTERNAL 
                             // NOTE: This block is artificial and allows ELF Relocations 
                             // ram:00105000-ram:00105077
                             //
                             *************************************************************
                             *                        THUNK FUNCTION                       
                             *************************************************************
                             thunk  void  free (void *  __ptr )
                               Thunked-Function:  <EXTERNAL>::free
             void              <VOID>         <RETURN>
             void *            RDI:8          __ptr
                             <EXTERNAL>::free                                XREF[2]:     free:001010e0 (T) , 
                                                                                          free:001010e4 (c) , 00103f88 (*)   
        00105000                 ??         ??
        00105001                 ??         ??
        00105002                 ??         ??
        00105003                 ??         ??
        00105004                 ??         ??
        00105005                 ??         ??
        00105006                 ??         ??
        00105007                 ??         ??
                             *************************************************************
                             *                        THUNK FUNCTION                       
                             *************************************************************
                             thunk  undefined  __libc_start_main ()
                               Thunked-Function:  <EXTERNAL>::__libc_sta
             undefined         AL:1           <RETURN>
                             <EXTERNAL>::__libc_start_main                   XREF[2]:     entry:0010119f (c) , 00103fd8 (*)   
        00105008                 ??         ??
        00105009                 ??         ??
        0010500a                 ??         ??
        0010500b                 ??         ??
        0010500c                 ??         ??
        0010500d                 ??         ??
        0010500e                 ??         ??
        0010500f                 ??         ??
                             *************************************************************
                             *                        THUNK FUNCTION                       
                             *************************************************************
                             thunk  undefined  _ITM_deregisterTMCloneTable ()
                               Thunked-Function:  <EXTERNAL>::_ITM_dereg
             undefined         AL:1           <RETURN>
                             <EXTERNAL>::_ITM_deregisterTMCloneTable         XREF[3]:     FUN_001011b0:001011c3 (*) , 
                                                                                          FUN_001011b0:001011cf (c) , 
                                                                                          00103fe0 (*)   
        00105010                 ??         ??
        00105011                 ??         ??
        00105012                 ??         ??
        00105013                 ??         ??
        00105014                 ??         ??
        00105015                 ??         ??
        00105016                 ??         ??
        00105017                 ??         ??
                             *************************************************************
                             *                        THUNK FUNCTION                       
                             *************************************************************
                             thunk  char *  strcpy (char *  __dest , char *  __src )
                               Thunked-Function:  <EXTERNAL>::strcpy
             char *            RAX:8          <RETURN>
             char *            RDI:8          __dest
             char *            RSI:8          __src
                             <EXTERNAL>::strcpy                              XREF[2]:     strcpy:001010f0 (T) , 
                                                                                          strcpy:001010f4 (c) , 00103f90 (*)   
        00105018                 ??         ??
        00105019                 ??         ??
        0010501a                 ??         ??
        0010501b                 ??         ??
        0010501c                 ??         ??
        0010501d                 ??         ??
        0010501e                 ??         ??
        0010501f                 ??         ??
                             *************************************************************
                             *                        THUNK FUNCTION                       
                             *************************************************************
                             thunk  int  puts (char *  __s )
                               Thunked-Function:  <EXTERNAL>::puts
             int               EAX:4          <RETURN>
             char *            RDI:8          __s
                             <EXTERNAL>::puts                                XREF[2]:     puts:00101100 (T) , 
                                                                                          puts:00101104 (c) , 00103f98 (*)   
        00105020                 ??         ??
        00105021                 ??         ??
        00105022                 ??         ??
        00105023                 ??         ??
        00105024                 ??         ??
        00105025                 ??         ??
        00105026                 ??         ??
        00105027                 ??         ??
                             *************************************************************
                             *                        THUNK FUNCTION                       
                             *************************************************************
                             thunk  int  system (char *  __command )
                               Thunked-Function:  <EXTERNAL>::system
             int               EAX:4          <RETURN>
             char *            RDI:8          __command
                             <EXTERNAL>::system                              XREF[2]:     system:00101110 (T) , 
                                                                                          system:00101114 (c) , 00103fa0 (*)   
        00105028                 ??         ??
        00105029                 ??         ??
        0010502a                 ??         ??
        0010502b                 ??         ??
        0010502c                 ??         ??
        0010502d                 ??         ??
        0010502e                 ??         ??
        0010502f                 ??         ??
                             *************************************************************
                             *                        THUNK FUNCTION                       
                             *************************************************************
                             thunk  int  printf (char *  __format , ... )
                               Thunked-Function:  <EXTERNAL>::printf
             int               EAX:4          <RETURN>
             char *            RDI:8          __format
                             <EXTERNAL>::printf                              XREF[2]:     printf:00101120 (T) , 
                                                                                          printf:00101124 (c) , 00103fa8 (*)   
        00105030                 ??         ??
        00105031                 ??         ??
        00105032                 ??         ??
        00105033                 ??         ??
        00105034                 ??         ??
        00105035                 ??         ??
        00105036                 ??         ??
        00105037                 ??         ??
                             *************************************************************
                             *                        THUNK FUNCTION                       
                             *************************************************************
                             thunk  ssize_t  read (int  __fd , void *  __buf , size_t  __nby
                               Thunked-Function:  <EXTERNAL>::read
             ssize_t           RAX:8          <RETURN>
             int               EDI:4          __fd
             void *            RSI:8          __buf
             size_t            RDX:8          __nbytes
                             <EXTERNAL>::read                                XREF[2]:     read:00101130 (T) , 
                                                                                          read:00101134 (c) , 00103fb0 (*)   
        00105038                 ??         ??
        00105039                 ??         ??
        0010503a                 ??         ??
        0010503b                 ??         ??
        0010503c                 ??         ??
        0010503d                 ??         ??
        0010503e                 ??         ??
        0010503f                 ??         ??
                             *************************************************************
                             *                        THUNK FUNCTION                       
                             *************************************************************
                             thunk  undefined  __gmon_start__ ()
                               Thunked-Function:  <EXTERNAL>::__gmon_sta
             undefined         AL:1           <RETURN>
                             <EXTERNAL>::__gmon_start__                      XREF[3]:     _DT_INIT:00101008 (*) , 
                                                                                          _DT_INIT:00101014 (c) , 
                                                                                          00103fe8 (*)   
        00105040                 ??         ??
        00105041                 ??         ??
        00105042                 ??         ??
        00105043                 ??         ??
        00105044                 ??         ??
        00105045                 ??         ??
        00105046                 ??         ??
        00105047                 ??         ??
                             *************************************************************
                             *                        THUNK FUNCTION                       
                             *************************************************************
                             thunk  void *  malloc (size_t  __size )
                               Thunked-Function:  <EXTERNAL>::malloc
             void *            RAX:8          <RETURN>
             size_t            RDI:8          __size
                             <EXTERNAL>::malloc                              XREF[2]:     malloc:00101140 (T) , 
                                                                                          malloc:00101144 (c) , 00103fb8 (*)   
        00105048                 ??         ??
        00105049                 ??         ??
        0010504a                 ??         ??
        0010504b                 ??         ??
        0010504c                 ??         ??
        0010504d                 ??         ??
        0010504e                 ??         ??
        0010504f                 ??         ??
                             *************************************************************
                             *                        THUNK FUNCTION                       
                             *************************************************************
                             thunk  int  setvbuf (FILE *  __stream , char *  __buf , int  __
                               Thunked-Function:  <EXTERNAL>::setvbuf
             int               EAX:4          <RETURN>
             FILE *            RDI:8          __stream
             char *            RSI:8          __buf
             int               EDX:4          __modes
             size_t            RCX:8          __n
                             <EXTERNAL>::setvbuf                             XREF[2]:     setvbuf:00101150 (T) , 
                                                                                          setvbuf:00101154 (c) , 
                                                                                          00103fc0 (*)   
        00105050                 ??         ??
        00105051                 ??         ??
        00105052                 ??         ??
        00105053                 ??         ??
        00105054                 ??         ??
        00105055                 ??         ??
        00105056                 ??         ??
        00105057                 ??         ??
                             *************************************************************
                             *                        THUNK FUNCTION                       
                             *************************************************************
                             thunk  undefined  __isoc99_scanf ()
                               Thunked-Function:  <EXTERNAL>::__isoc99_s
             undefined         AL:1           <RETURN>
                             <EXTERNAL>::__isoc99_scanf                      XREF[2]:     __isoc99_scanf:00101160 (T) , 
                                                                                          __isoc99_scanf:00101164 (c) , 
                                                                                          00103fc8 (*)   
        00105058                 ??         ??
        00105059                 ??         ??
        0010505a                 ??         ??
        0010505b                 ??         ??
        0010505c                 ??         ??
        0010505d                 ??         ??
        0010505e                 ??         ??
        0010505f                 ??         ??
                             *************************************************************
                             *                        THUNK FUNCTION                       
                             *************************************************************
                             thunk  noreturn  void  exit (int  __status )
                               Thunked-Function:  <EXTERNAL>::exit
             void              <VOID>         <RETURN>
             int               EDI:4          __status
                             <EXTERNAL>::exit                                XREF[2]:     exit:00101170 (T) , 
                                                                                          exit:00101174 (c) , 00103fd0 (*)   
        00105060                 ??         ??
        00105061                 ??         ??
        00105062                 ??         ??
        00105063                 ??         ??
        00105064                 ??         ??
        00105065                 ??         ??
        00105066                 ??         ??
        00105067                 ??         ??
                             *************************************************************
                             *                        THUNK FUNCTION                       
                             *************************************************************
                             thunk  undefined  _ITM_registerTMCloneTable ()
                               Thunked-Function:  <EXTERNAL>::_ITM_regis
             undefined         AL:1           <RETURN>
                             <EXTERNAL>::_ITM_registerTMCloneTable           XREF[3]:     FUN_001011e0:00101204 (*) , 
                                                                                          FUN_001011e0:00101210 (c) , 
                                                                                          00103ff0 (*)   
        00105068                 ??         ??
        00105069                 ??         ??
        0010506a                 ??         ??
        0010506b                 ??         ??
        0010506c                 ??         ??
        0010506d                 ??         ??
        0010506e                 ??         ??
        0010506f                 ??         ??
                             *************************************************************
                             *                        THUNK FUNCTION                       
                             *************************************************************
                             thunk  undefined  __cxa_finalize ()
                               Thunked-Function:  <EXTERNAL>::__cxa_fina
             undefined         AL:1           <RETURN>
                             <EXTERNAL>::__cxa_finalize                      XREF[2]:     __cxa_finalize:001010d0 (T) , 
                                                                                          __cxa_finalize:001010d4 (c) , 
                                                                                          00103ff8 (*)   
        00105070                 ??         ??
        00105071                 ??         ??
        00105072                 ??         ??
        00105073                 ??         ??
        00105074                 ??         ??
        00105075                 ??         ??
        00105076                 ??         ??
        00105077                 ??         ??
                             //
                             // .comment 
                             // SHT_PROGBITS [not-loaded]
                             // .comment::00000000-.comment::0000002a
                             //
             assume DF = <UNKNOWN>
                             ElfComment[0]                                   XREF[1]:     _elfSectionHeaders::000006d0 (*)   
      ::00000000 47  43  43       utf8       u8"GCC: (Ubuntu 13.3.0-6ubuntu2~24.04) 13.3.0"
                 3a  20  28 
                 55  62  75 
                             //
                             // .shstrtab 
                             // SHT_STRTAB [not-loaded]
                             // .shstrtab::00000000-.shstrtab::00000109
                             //
                             DAT_.shstrtab__00000000                         XREF[1]:     _elfSectionHeaders::00000710 (*)   
      ::00000000 00              ??         00h
      ::00000001 2e  73  68       ds         ".shstrtab"
                 73  74  72 
                 74  61  62  00
      ::0000000b 2e  69  6e       ds         ".interp"
                 74  65  72 
                 70  00
      ::00000013 2e  6e  6f       ds         ".note.gnu.property"
                 74  65  2e 
                 67  6e  75 
      ::00000026 2e  6e  6f       ds         ".note.gnu.build-id"
                 74  65  2e 
                 67  6e  75 
      ::00000039 2e  6e  6f       ds         ".note.ABI-tag"
                 74  65  2e 
                 41  42  49 
      ::00000047 2e  67  6e       ds         ".gnu.hash"
                 75  2e  68 
                 61  73  68  00
      ::00000051 2e  64  79       ds         ".dynsym"
                 6e  73  79 
                 6d  00
      ::00000059 2e  64  79       ds         ".dynstr"
                 6e  73  74 
                 72  00
      ::00000061 2e  67  6e       ds         ".gnu.version"
                 75  2e  76 
                 65  72  73 
      ::0000006e 2e  67  6e       ds         ".gnu.version_r"
                 75  2e  76 
                 65  72  73 
      ::0000007d 2e  72  65       ds         ".rela.dyn"
                 6c  61  2e 
                 64  79  6e  00
      ::00000087 2e  72  65       ds         ".rela.plt"
                 6c  61  2e 
                 70  6c  74  00
      ::00000091 2e  69  6e       ds         ".init"
                 69  74  00
      ::00000097 2e  70  6c       ds         ".plt.got"
                 74  2e  67 
                 6f  74  00
      ::000000a0 2e  70  6c       ds         ".plt.sec"
                 74  2e  73 
                 65  63  00
      ::000000a9 2e  74  65       ds         ".text"
                 78  74  00
      ::000000af 2e  66  69       ds         ".fini"
                 6e  69  00
      ::000000b5 2e  72  6f       ds         ".rodata"
                 64  61  74 
                 61  00
      ::000000bd 2e  65  68       ds         ".eh_frame_hdr"
                 5f  66  72 
                 61  6d  65 
      ::000000cb 2e  65  68       ds         ".eh_frame"
                 5f  66  72 
                 61  6d  65  00
      ::000000d5 2e  69  6e       ds         ".init_array"
                 69  74  5f 
                 61  72  72 
      ::000000e1 2e  66  69       ds         ".fini_array"
                 6e  69  5f 
                 61  72  72 
      ::000000ed 2e  64  79       ds         ".dynamic"
                 6e  61  6d 
                 69  63  00
      ::000000f6 2e  64  61       ds         ".data"
                 74  61  00
      ::000000fc 2e  62  73       ds         ".bss"
                 73  00
      ::00000101 2e  63  6f       ds         ".comment"
                 6d  6d  65 
                 6e  74  00
                             //
                             // _elfSectionHeaders 
                             // Elf Section Headers
                             // _elfSectionHeaders::00000000-_elfSectionHeaders::0000073f
                             //
                             Elf64_Shdr_ARRAY__elfSectionHeaders__00000000   XREF[1]:     00100028 (*)   
      ::00000000 00  00  00       Elf64_Sh                                                    SECTION0 - SHT_NULL
                 00  00  00 
                 00  00  00 
