                             //
                             // Headers 
                             // ram:140000000-ram:1400003ff
                             //
             assume DF = 0x0  (Default)
                             IMAGE_DOS_HEADER_140000000.e_lfanew             XREF[3,1]:   140000128 (*) , 
                             IMAGE_DOS_HEADER_140000000                                   __scrt_is_nonwritable_in_current
                                                                                          __scrt_is_nonwritable_in_current
                                                                                          __scrt_is_nonwritable_in_current
       140000000 4d  5a  90       IMAGE_DO
                 00  03  00 
                 00  00  04 
          140000000 4d  5a           char[2]   "MZ"                    e_magic                           XREF[3]:     140000128 (*) , 
                                                                                                                     __scrt_is_nonwritable_in_current
                                                                                                                     __scrt_is_nonwritable_in_current
             140000000 [0]            'M',  'Z'
          140000002 90  00           dw        90h                     e_cblp        Bytes of last page
          140000004 03  00           dw        3h                      e_cp          Pages in file
          140000006 00  00           dw        0h                      e_crlc        Relocations
          140000008 04  00           dw        4h                      e_cparhdr     Size of header in 
          14000000a 00  00           dw        0h                      e_minalloc    Minimum extra para
          14000000c ff  ff           dw        FFFFh                   e_maxalloc    Maximum extra para
          14000000e 00  00           dw        0h                      e_ss          Initial (relative)
          140000010 b8  00           dw        B8h                     e_sp          Initial SP value
          140000012 00  00           dw        0h                      e_csum        Checksum
          140000014 00  00           dw        0h                      e_ip          Initial IP value
          140000016 00  00           dw        0h                      e_cs          Initial (relative)
          140000018 40  00           dw        40h                     e_lfarlc      File address of re
          14000001a 00  00           dw        0h                      e_ovno        Overlay number
          14000001c 00  00  00  00  00  dw[4]                             e_res[4]      Reserved words
                    00  00  00
          140000024 00  00           dw        0h                      e_oemid       OEM identifier (fo
          140000026 00  00           dw        0h                      e_oeminfo     OEM information; e
          140000028 00  00  00  00  00  dw[10]                            e_res2[10]    Reserved words
                    00  00  00  00  00 
                    00  00  00  00  0
          14000003c f8  00  00  00    ddw       F8h                     e_lfanew      File address of ne  XREF[1]:     __scrt_is_nonwritable_in_current
          140000040 0e  1f  ba  0e  00  db[64]                            e_program     Actual DOS program
                    b4  09  cd  21  b8 
                    01  4c  cd  21  5
       140000080 37  1a  66       IMAGE_RI
                 cc  73  7b 
                 08  9f  73 
       1400000e8 00              ??         00h
       1400000e9 00              ??         00h
       1400000ea 00              ??         00h
       1400000eb 00              ??         00h
       1400000ec 00              ??         00h
       1400000ed 00              ??         00h
       1400000ee 00              ??         00h
       1400000ef 00              ??         00h
       1400000f0 00              ??         00h
       1400000f1 00              ??         00h
       1400000f2 00              ??         00h
       1400000f3 00              ??         00h
       1400000f4 00              ??         00h
       1400000f5 00              ??         00h
       1400000f6 00              ??         00h
       1400000f7 00              ??         00h
                             IMAGE_NT_HEADERS64_1400000f8.FileHeader.Number  XREF[1,4]:   __scrt_is_nonwritable_in_current
                             IMAGE_NT_HEADERS64_1400000f8.FileHeader.SizeOf               __scrt_is_nonwritable_in_current
                             IMAGE_NT_HEADERS64_1400000f8.OptionalHeader.Ma               __scrt_is_nonwritable_in_current
                             IMAGE_NT_HEADERS64_1400000f8                                 __scrt_is_nonwritable_in_current
                                                                                          __scrt_is_nonwritable_in_current
       1400000f8 50  45  00       IMAGE_NT                                                    = 3940h
                 00  64  86                                                                   = 3000h
                 06  00  1b                                                                   = 00003eb2
                             IMAGE_SECTION_HEADER_140000200.Misc             XREF[1,3]:   __scrt_is_nonwritable_in_current
                             IMAGE_SECTION_HEADER_140000200.VirtualAddress                __scrt_is_nonwritable_in_current
                             IMAGE_SECTION_HEADER_140000200.Characteristics               __scrt_is_nonwritable_in_current
                             IMAGE_SECTION_HEADER_140000200                               __scrt_is_nonwritable_in_current
       140000200 2e  74  65       IMAGE_SE                                                    .text
                 78  74  00 
                 00  00  f8 
                             IMAGE_SECTION_HEADER_140000228                  XREF[1]:     __scrt_is_nonwritable_in_current
       140000228 2e  72  64       IMAGE_SE                                                    .rdata
                 61  74  61 
                 00  00  2e 
       140000250 2e  64  61       IMAGE_SE                                                    .data
                 74  61  00 
                 00  00  58 
       140000278 2e  70  64       IMAGE_SE                                                    .pdata
                 61  74  61 
                 00  00  bc 
       1400002a0 2e  72  73       IMAGE_SE                                                    .rsrc
                 72  63  00 
                 00  00  e0 
       1400002c8 2e  72  65       IMAGE_SE                                                    .reloc
                 6c  6f  63 
                 00  00  1c 
                             DAT_1400002f0                                   XREF[1]:     __scrt_is_nonwritable_in_current
      
                             //
                             // .text 
                             // ram:140001000-ram:1400021ff
                             //
                             *************************************************************
                             *                           FUNCTION                          
                             *************************************************************
                             undefined8  __fastcall  FUN_140001000 (char *  param_1 )
                               assume GS_OFFSET = 0xff00000000
             undefined8        RAX:8          <RETURN>
             char *            RCX:8          param_1
             undefined8        Stack[0x8]:8   local_res8                              XREF[4]:     140001000 (W) , 
                                                                                                   140001009 (R) , 
                                                                                                   140001056 (R) , 
                                                                                                   140001078 (R)   
             undefined4        Stack[-0x14]:4 local_14                                XREF[3]:     140001013 (W) , 
                                                                                                   140001017 (R) , 
                                                                                                   140001045 (R)   
             undefined4        Stack[-0x18]:4 local_18                                XREF[5]:     140001030 (W) , 
                                                                                                   14000103a (R) , 
                                                                                                   140001041 (W) , 
                                                                                                   14000104b (R) , 
                                                                                                   140001051 (R)   
                             FUN_140001000                                   XREF[4]:     140000124 (*) , 14000020c (*) , 
                                                                                          FUN_140001250:14000129e (c) , 
                                                                                          140005000 (*)   
       140001000 48  89  4c       MOV        qword ptr [RSP  + local_res8 ],param_1
                 24  08
       140001005 48  83  ec  38    SUB        RSP ,0x38
       140001009 48  8b  4c       MOV        param_1 ,qword ptr [RSP  + local_res8 ]
                 24  40
       14000100e e8  fb  0f       CALL       API-MS-WIN-CRT-STRING-L1-1-0.DLL::strlen         size_t strlen(char * _Str)
                 00  00
       140001013 89  44  24  24    MOV        dword ptr [RSP  + local_14 ],EAX
       140001017 8b  44  24  24    MOV        EAX ,dword ptr [RSP  + local_14 ]
       14000101b ff  c0           INC        EAX
       14000101d 99              CDQ
       14000101e 83  e2  07       AND        EDX ,0x7
       140001021 03  c2           ADD        EAX ,EDX
       140001023 83  e0  07       AND        EAX ,0x7
       140001026 2b  c2           SUB        EAX ,EDX
       140001028 85  c0           TEST       EAX ,EAX
       14000102a 74  04           JZ         LAB_140001030
       14000102c 33  c0           XOR        EAX ,EAX
       14000102e eb  5f           JMP        LAB_14000108f
                             LAB_140001030                                   XREF[1]:     14000102a (j)   
       140001030 c7  44  24       MOV        dword ptr [RSP  + local_18 ],0x0
                 20  00  00 
                 00  00
       140001038 eb  0b           JMP        LAB_140001045
                             LAB_14000103a                                   XREF[1]:     140001069 (j)   
       14000103a 8b  44  24  20    MOV        EAX ,dword ptr [RSP  + local_18 ]
       14000103e 83  c0  08       ADD        EAX ,0x8
       140001041 89  44  24  20    MOV        dword ptr [RSP  + local_18 ],EAX
                             LAB_140001045                                   XREF[1]:     140001038 (j)   
       140001045 8b  44  24  24    MOV        EAX ,dword ptr [RSP  + local_14 ]
       140001049 ff  c0           INC        EAX
       14000104b 39  44  24  20    CMP        dword ptr [RSP  + local_18 ],EAX
       14000104f 7d  1a           JGE        LAB_14000106b
       140001051 48  63  44       MOVSXD     RAX ,dword ptr [RSP  + local_18 ]
                 24  20
       140001056 48  8b  4c       MOV        param_1 ,qword ptr [RSP  + local_res8 ]
                 24  40
       14000105b 48  03  c8       ADD        param_1 ,RAX
       14000105e 48  8b  c1       MOV        RAX ,param_1
       140001061 48  8b  c8       MOV        param_1 ,RAX
       140001064 e8  37  00       CALL       FUN_1400010a0                                    undefined FUN_1400010a0(byte * p
                 00  00
       140001069 eb  cf           JMP        LAB_14000103a
                             LAB_14000106b                                   XREF[1]:     14000104f (j)   
       14000106b 41  b8  19       MOV        R8D ,0x19
                 00  00  00
       140001071 48  8d  15       LEA        RDX ,[DAT_140004000 ]                             = 7Eh    ~
                 88  2f  00  00
       140001078 48  8b  4c       MOV        param_1 ,qword ptr [RSP  + local_res8 ]
                 24  40
       14000107d e8  6e  0f       CALL       VCRUNTIME140.DLL::memcmp                         int memcmp(void * _Buf1, void * 
                 00  00
       140001082 85  c0           TEST       EAX ,EAX
       140001084 75  07           JNZ        LAB_14000108d
       140001086 b8  01  00       MOV        EAX ,0x1
                 00  00
       14000108b eb  02           JMP        LAB_14000108f
                             LAB_14000108d                                   XREF[1]:     140001084 (j)   
       14000108d 33  c0           XOR        EAX ,EAX
                             LAB_14000108f                                   XREF[2]:     14000102e (j) , 14000108b (j)   
       14000108f 48  83  c4  38    ADD        RSP ,0x38
       140001093 c3              RET
                             LAB_140001094                                   XREF[1]:     140005004 (*)   
       140001094 cc              INT3
       140001095 cc              ??         CCh
       140001096 cc              ??         CCh
       140001097 cc              ??         CCh
       140001098 cc              ??         CCh
       140001099 cc              ??         CCh
       14000109a cc              ??         CCh
       14000109b cc              ??         CCh
       14000109c cc              ??         CCh
       14000109d cc              ??         CCh
       14000109e cc              ??         CCh
       14000109f cc              ??         CCh
                             *************************************************************
                             *                           FUNCTION                          
                             *************************************************************
                             undefined  __fastcall  FUN_1400010a0 (byte *  param_1 )
                               assume GS_OFFSET = 0xff00000000
             undefined         AL:1           <RETURN>
             byte *            RCX:8          param_1
             undefined8        Stack[0x8]:8   local_res8                              XREF[4]:     1400010a0 (W) , 
                                                                                                   1400010dc (R) , 
                                                                                                   140001147 (R) , 
                                                                                                   140001163 (R)   
             undefined8        Stack[-0x28]:8 local_28                                XREF[2]:     1400010b5 (W) , 
                                                                                                   140001176 (R)   
             undefined1        Stack[-0x38]:1 local_38                                XREF[1]:     1400010ba (*)   
             undefined4        Stack[-0x40]:4 local_40                                XREF[4]:     1400010e8 (W) , 
                                                                                                   1400010f2 (R) , 
                                                                                                   1400010f8 (W) , 
                                                                                                   1400010fc (R)   
             undefined4        Stack[-0x44]:4 local_44                                XREF[7]:     140001103 (W) , 
                                                                                                   14000110d (R) , 
                                                                                                   140001113 (W) , 
                                                                                                   140001117 (R) , 
                                                                                                   140001122 (R) , 
                                                                                                   14000113b (R) , 
                                                                                                   140001158 (R)   
             undefined1        Stack[-0x48]:1 local_48                                XREF[4]:     1400010e5 (*) , 
                                                                                                   14000111e (*) , 
                                                                                                   140001155 (*) , 
                                                                                                   140001168 (*)   
                             FUN_1400010a0                                   XREF[2]:     FUN_140001000:140001064 (c) , 
                                                                                          14000500c (*)   
       1400010a0 48  89  4c       MOV        qword ptr [RSP  + local_res8 ],param_1
                 24  08
       1400010a5 56              PUSH       RSI
       1400010a6 57              PUSH       RDI
       1400010a7 48  83  ec  38    SUB        RSP ,0x38
       1400010ab 48  8b  05       MOV        RAX ,qword ptr [DAT_140004128 ]                   = 00002B992DDFA232h
                 76  30  00  00
       1400010b2 48  33  c4       XOR        RAX ,RSP
       1400010b5 48  89  44       MOV        qword ptr [RSP  + local_28 ],RAX
                 24  20
       1400010ba 48  8d  44       LEA        RAX =>local_38 ,[RSP  + 0x10 ]
                 24  10
       1400010bf 48  8d  0d       LEA        param_1 ,[s_I_am_KEY_140003230 ]                  = "I_am_KEY"
                 6a  21  00  00
       1400010c6 48  8b  f8       MOV        RDI ,RAX
       1400010c9 48  8b  f1       MOV        RSI ,param_1
       1400010cc b9  09  00       MOV        param_1 ,0x9
                 00  00
       1400010d1 f3  a4           MOVSB.REP  RDI ,RSI =>s_I_am_KEY_140003230                   = "I_am_KEY"
       1400010d3 b8  01  00       MOV        EAX ,0x1
                 00  00
       1400010d8 48  6b  c0  00    IMUL       RAX ,RAX ,0x0
       1400010dc 48  8b  4c       MOV        param_1 ,qword ptr [RSP  + local_res8 ]
                 24  50
       1400010e1 0f  b6  04  01    MOVZX      EAX ,byte ptr [param_1  + RAX *0x1 ]
       1400010e5 88  04  24       MOV        byte ptr [RSP ]=>local_48 ,AL
       1400010e8 c7  44  24       MOV        dword ptr [RSP  + local_40 ],0x0
                 08  00  00 
                 00  00
       1400010f0 eb  0a           JMP        LAB_1400010fc
                             LAB_1400010f2                                   XREF[1]:     140001171 (j)   
       1400010f2 8b  44  24  08    MOV        EAX ,dword ptr [RSP  + local_40 ]
       1400010f6 ff  c0           INC        EAX
       1400010f8 89  44  24  08    MOV        dword ptr [RSP  + local_40 ],EAX
                             LAB_1400010fc                                   XREF[1]:     1400010f0 (j)   
       1400010fc 83  7c  24       CMP        dword ptr [RSP  + local_40 ],0x10
                 08  10
       140001101 7d  73           JGE        LAB_140001176
       140001103 c7  44  24       MOV        dword ptr [RSP  + local_44 ],0x0
                 04  00  00 
                 00  00
       14000110b eb  0a           JMP        LAB_140001117
                             LAB_14000110d                                   XREF[1]:     14000116f (j)   
       14000110d 8b  44  24  04    MOV        EAX ,dword ptr [RSP  + local_44 ]
       140001111 ff  c0           INC        EAX
       140001113 89  44  24  04    MOV        dword ptr [RSP  + local_44 ],EAX
                             LAB_140001117                                   XREF[1]:     14000110b (j)   
       140001117 83  7c  24       CMP        dword ptr [RSP  + local_44 ],0x8
                 04  08
       14000111c 7d  53           JGE        LAB_140001171
       14000111e 0f  b6  04  24    MOVZX      EAX ,byte ptr [RSP ]=>local_48
       140001122 48  63  4c       MOVSXD     param_1 ,dword ptr [RSP  + local_44 ]
                 24  04
       140001127 0f  b6  4c       MOVZX      param_1 ,byte ptr [RSP  + param_1 *0x1  + 0x10 ]
                 0c  10
       14000112c 33  c1           XOR        EAX ,param_1
       14000112e 48  98           CDQE
       140001130 48  8d  0d       LEA        param_1 ,[DAT_140004020 ]                         = 63h    c
                 e9  2e  00  00
       140001137 0f  b6  04  01    MOVZX      EAX ,byte ptr [param_1  + RAX *offset  DAT_1400040  = 63h    c
       14000113b 8b  4c  24  04    MOV        param_1 ,dword ptr [RSP  + local_44 ]
       14000113f ff  c1           INC        param_1
       140001141 83  e1  07       AND        param_1 ,0x7
       140001144 48  63  c9       MOVSXD     param_1 ,param_1
       140001147 48  8b  54       MOV        RDX ,qword ptr [RSP  + local_res8 ]
                 24  50
       14000114c 0f  b6  0c  0a    MOVZX      param_1 ,byte ptr [RDX  + param_1 *0x1 ]
       140001150 03  c1           ADD        EAX ,param_1
       140001152 c0  c8  05       ROR        AL,0x5
       140001155 88  04  24       MOV        byte ptr [RSP ]=>local_48 ,AL
       140001158 8b  44  24  04    MOV        EAX ,dword ptr [RSP  + local_44 ]
       14000115c ff  c0           INC        EAX
       14000115e 83  e0  07       AND        EAX ,0x7
       140001161 48  98           CDQE
       140001163 48  8b  4c       MOV        param_1 ,qword ptr [RSP  + local_res8 ]
                 24  50
       140001168 0f  b6  14  24    MOVZX      EDX ,byte ptr [RSP ]=>local_48
       14000116c 88  14  01       MOV        byte ptr [param_1  + RAX *0x1 ],DL
       14000116f eb  9c           JMP        LAB_14000110d
                             LAB_140001171                                   XREF[1]:     14000111c (j)   
       140001171 e9  7c  ff       JMP        LAB_1400010f2
                 ff  ff
                             LAB_140001176                                   XREF[1]:     140001101 (j)   
       140001176 48  8b  4c       MOV        param_1 ,qword ptr [RSP  + local_28 ]
                 24  20
       14000117b 48  33  cc       XOR        param_1 ,RSP
       14000117e e8  ad  02       CALL       __security_check_cookie                          void __security_check_cookie(uin
                 00  00
       140001183 48  83  c4  38    ADD        RSP ,0x38
       140001187 5f              POP        RDI
       140001188 5e              POP        RSI
       140001189 c3              RET
                             LAB_14000118a                                   XREF[1]:     140005010 (*)   
       14000118a cc              INT3
       14000118b cc              ??         CCh
       14000118c cc              ??         CCh
       14000118d cc              ??         CCh
       14000118e cc              ??         CCh
       14000118f cc              ??         CCh
                             *************************************************************
                             *                           FUNCTION                          
                             *************************************************************
                             undefined *  __fastcall  FUN_140001190 (void )
                               assume GS_OFFSET = 0xff00000000
             undefined *       RAX:8          <RETURN>
                             FUN_140001190                                   XREF[2]:     _vfprintf_l:1400011c8 (c) , 
                                                                                          FUN_140001b6c:140001b70 (c)   
       140001190 48  8d  05       LEA        RAX ,[DAT_140004160 ]
                 c9  2f  00  00
       140001197 c3              RET
       140001198 cc              ??         CCh
       140001199 cc              ??         CCh
       14000119a cc              ??         CCh
       14000119b cc              ??         CCh
       14000119c cc              ??         CCh
       14000119d cc              ??         CCh
       14000119e cc              ??         CCh
       14000119f cc              ??         CCh
                             *************************************************************
                             *                           FUNCTION                          
                             *************************************************************
                             undefined *  __fastcall  FUN_1400011a0 (void )
                               assume GS_OFFSET = 0xff00000000
             undefined *       RAX:8          <RETURN>
                             FUN_1400011a0                                   XREF[2]:     _vfprintf_l:140001218 (c) , 
                                                                                          FUN_140001b6c:140001b79 (c)   
       1400011a0 48  8d  05       LEA        RAX ,[DAT_140004168 ]
                 c1  2f  00  00
       1400011a7 c3              RET
       1400011a8 cc              ??         CCh
       1400011a9 cc              ??         CCh
       1400011aa cc              ??         CCh
       1400011ab cc              ??         CCh
       1400011ac cc              ??         CCh
       1400011ad cc              ??         CCh
       1400011ae cc              ??         CCh
       1400011af cc              ??         CCh
                             *************************************************************
                             * Library Function - Single Match                            
                             *  _vfprintf_l                                               
                             *                                                            
                             * Library: Visual Studio 2019 Release                        *
                             *************************************************************
                             int  __cdecl  _vfprintf_l (FILE *  _File , char *  _Format , _
                               assume GS_OFFSET = 0xff00000000
             int               EAX:4          <RETURN>
             FILE *            RCX:8          _File
             char *            RDX:8          _Format
             _locale_t         R8:8           _Locale
             va_list           R9:8           _ArgList
             undefined8        Stack[0x20]:8  local_res20                             XREF[2]:     1400011b0 (W) , 
                                                                                                   1400011cd (R)   
             undefined8        Stack[0x18]:8  local_res18                             XREF[2]:     1400011b5 (W) , 
                                                                                                   1400011d7 (R)   
             undefined8        Stack[0x10]:8  local_res10                             XREF[2]:     1400011ba (W) , 
                                                                                                   1400011dc (R)   
             undefined8        Stack[0x8]:8   local_res8                              XREF[2]:     1400011bf (W) , 
                                                                                                   1400011e1 (R)   
             undefined8        Stack[-0x18]:8 local_18                                XREF[1]:     1400011d2 (W)   
                             _vfprintf_l                                     XREF[2]:     FUN_1400012e0:14000131d (c) , 
                                                                                          140005018 (*)   
       1400011b0 4c  89  4c       MOV        qword ptr [RSP  + local_res20 ],_ArgList
                 24  20
       1400011b5 4c  89  44       MOV        qword ptr [RSP  + local_res18 ],_Locale
                 24  18
       1400011ba 48  89  54       MOV        qword ptr [RSP  + local_res10 ],_Format
                 24  10
       1400011bf 48  89  4c       MOV        qword ptr [RSP  + local_res8 ],_File
                 24  08
       1400011c4 48  83  ec  38    SUB        RSP ,0x38
       1400011c8 e8  c3  ff       CALL       FUN_140001190                                    undefined * FUN_140001190(void)
                 ff  ff
       1400011cd 48  8b  4c       MOV        _File ,qword ptr [RSP  + local_res20 ]
                 24  58
       1400011d2 48  89  4c       MOV        qword ptr [RSP  + local_18 ],_File
                 24  20
       1400011d7 4c  8b  4c       MOV        _ArgList ,qword ptr [RSP  + local_res18 ]
                 24  50
       1400011dc 4c  8b  44       MOV        _Locale ,qword ptr [RSP  + local_res10 ]
                 24  48
       1400011e1 48  8b  54       MOV        _Format ,qword ptr [RSP  + local_res8 ]
                 24  40
       1400011e6 48  8b  08       MOV        _File ,qword ptr [RAX ]
       1400011e9 ff  15  a1       CALL       qword ptr [->API-MS-WIN-CRT-STDIO-L1-1-0.DLL::   = 00003b16
                 1f  00  00
       1400011ef 48  83  c4  38    ADD        RSP ,0x38
       1400011f3 c3              RET
                             LAB_1400011f4                                   XREF[1]:     14000501c (*)   
       1400011f4 cc              INT3
       1400011f5 cc              ??         CCh
       1400011f6 cc              ??         CCh
       1400011f7 cc              ??         CCh
       1400011f8 cc              ??         CCh
       1400011f9 cc              ??         CCh
       1400011fa cc              ??         CCh
       1400011fb cc              ??         CCh
       1400011fc cc              ??         CCh
       1400011fd cc              ??         CCh
       1400011fe cc              ??         CCh
       1400011ff cc              ??         CCh
                             *************************************************************
                             * Library Function - Single Match                            
                             *  _vfprintf_l                                               
                             *                                                            
                             * Library: Visual Studio 2019 Release                        *
                             *************************************************************
                             int  __cdecl  _vfprintf_l (FILE *  _File , char *  _Format , _
                               assume GS_OFFSET = 0xff00000000
             int               EAX:4          <RETURN>
             FILE *            RCX:8          _File
             char *            RDX:8          _Format
             _locale_t         R8:8           _Locale
             va_list           R9:8           _ArgList
             undefined8        Stack[0x20]:8  local_res20                             XREF[2]:     140001200 (W) , 
                                                                                                   14000121d (R)   
             undefined8        Stack[0x18]:8  local_res18                             XREF[2]:     140001205 (W) , 
                                                                                                   140001227 (R)   
             undefined8        Stack[0x10]:8  local_res10                             XREF[2]:     14000120a (W) , 
                                                                                                   14000122c (R)   
             undefined8        Stack[0x8]:8   local_res8                              XREF[2]:     14000120f (W) , 
                                                                                                   140001231 (R)   
             undefined8        Stack[-0x18]:8 local_18                                XREF[1]:     140001222 (W)   
                             _vfprintf_l                                     XREF[2]:     FUN_140001340:14000137a (c) , 
                                                                                          140005024 (*)   
       140001200 4c  89  4c       MOV        qword ptr [RSP  + local_res20 ],_ArgList
                 24  20
       140001205 4c  89  44       MOV        qword ptr [RSP  + local_res18 ],_Locale
                 24  18
       14000120a 48  89  54       MOV        qword ptr [RSP  + local_res10 ],_Format
                 24  10
       14000120f 48  89  4c       MOV        qword ptr [RSP  + local_res8 ],_File
                 24  08
       140001214 48  83  ec  38    SUB        RSP ,0x38
       140001218 e8  83  ff       CALL       FUN_1400011a0                                    undefined * FUN_1400011a0(void)
                 ff  ff
       14000121d 48  8b  4c       MOV        _File ,qword ptr [RSP  + local_res20 ]
                 24  58
       140001222 48  89  4c       MOV        qword ptr [RSP  + local_18 ],_File
                 24  20
       140001227 4c  8b  4c       MOV        _ArgList ,qword ptr [RSP  + local_res18 ]
                 24  50
       14000122c 4c  8b  44       MOV        _Locale ,qword ptr [RSP  + local_res10 ]
                 24  48
       140001231 48  8b  54       MOV        _Format ,qword ptr [RSP  + local_res8 ]
                 24  40
       140001236 48  8b  08       MOV        _File ,qword ptr [RAX ]
       140001239 ff  15  49       CALL       qword ptr [->API-MS-WIN-CRT-STDIO-L1-1-0.DLL::   = 00003b30
                 1f  00  00
       14000123f 48  83  c4  38    ADD        RSP ,0x38
       140001243 c3              RET
                             LAB_140001244                                   XREF[1]:     140005028 (*)   
       140001244 cc              INT3
       140001245 cc              ??         CCh
       140001246 cc              ??         CCh
       140001247 cc              ??         CCh
       140001248 cc              ??         CCh
       140001249 cc              ??         CCh
       14000124a cc              ??         CCh
       14000124b cc              ??         CCh
       14000124c cc              ??         CCh
       14000124d cc              ??         CCh
       14000124e cc              ??         CCh
       14000124f cc              ??         CCh
                             *************************************************************
                             *                           FUNCTION                          
                             *************************************************************
                             undefined  __fastcall  FUN_140001250 (undefined8  param_1 , 
                               assume GS_OFFSET = 0xff00000000
             undefined         AL:1           <RETURN>
             undefined8        RCX:8          param_1
             undefined8        RDX:8          param_2
             undefined8        R8:8           param_3
             undefined8        R9:8           param_4
             undefined8        Stack[-0x18]:8 local_18                                XREF[2]:     140001263 (W) , 
                                                                                                   1400012c5 (R)   
             undefined1        Stack[-0x118   local_118                               XREF[3]:     14000126b (*) , 
                                                                                                   140001288 (*) , 
                                                                                                   140001299 (*)   
                             FUN_140001250                                   XREF[2]:     FUN_140001538:14000163f (c) , 
                                                                                          140005030 (*)   
       140001250 40  57           PUSH       RDI
       140001252 48  81  ec       SUB        RSP ,0x130
                 30  01  00  00
       140001259 48  8b  05       MOV        RAX ,qword ptr [DAT_140004128 ]                   = 00002B992DDFA232h
                 c8  2e  00  00
       140001260 48  33  c4       XOR        RAX ,RSP
       140001263 48  89  84       MOV        qword ptr [RSP  + local_18 ],RAX
                 24  20  01 
                 00  00
       14000126b 48  8d  44       LEA        RAX =>local_118 ,[RSP  + 0x20 ]
                 24  20
       140001270 48  8b  f8       MOV        RDI ,RAX
       140001273 33  c0           XOR        EAX ,EAX
       140001275 b9  00  01       MOV        param_1 ,0x100
                 00  00
       14000127a f3  aa           STOSB.REP  RDI
       14000127c 48  8d  0d       LEA        param_1 ,[s_Input_:_140003240 ]                   = "Input : "
                 bd  1f  00  00
       140001283 e8  58  00       CALL       FUN_1400012e0                                    int FUN_1400012e0(char * param_1
                 00  00
       140001288 48  8d  54       LEA        param_2 =>local_118 ,[RSP  + 0x20 ]
                 24  20
       14000128d 48  8d  0d       LEA        param_1 ,[s_%256s_14000324c ]                     = "%256s"
                 b8  1f  00  00
       140001294 e8  a7  00       CALL       FUN_140001340                                    int FUN_140001340(char * param_1
                 00  00
       140001299 48  8d  4c       LEA        param_1 =>local_118 ,[RSP  + 0x20 ]
                 24  20
       14000129e e8  5d  fd       CALL       FUN_140001000                                    undefined8 FUN_140001000(char * 
                 ff  ff
       1400012a3 85  c0           TEST       EAX ,EAX
       1400012a5 74  0f           JZ         LAB_1400012b6
       1400012a7 48  8d  0d       LEA        param_1 ,[s_Correct_140003258 ]                   = "Correct"
                 aa  1f  00  00
       1400012ae ff  15  e4       CALL       qword ptr [->API-MS-WIN-CRT-STDIO-L1-1-0.DLL::   = 00003b0e
                 1e  00  00
       1400012b4 eb  0d           JMP        LAB_1400012c3
                             LAB_1400012b6                                   XREF[1]:     1400012a5 (j)   
       1400012b6 48  8d  0d       LEA        param_1 ,[s_Wrong_140003260 ]                     = "Wrong"
                 a3  1f  00  00
       1400012bd ff  15  d5       CALL       qword ptr [->API-MS-WIN-CRT-STDIO-L1-1-0.DLL::   = 00003b0e
                 1e  00  00
                             LAB_1400012c3                                   XREF[1]:     1400012b4 (j)   
       1400012c3 33  c0           XOR        EAX ,EAX
       1400012c5 48  8b  8c       MOV        param_1 ,qword ptr [RSP  + local_18 ]
                 24  20  01 
                 00  00
       1400012cd 48  33  cc       XOR        param_1 ,RSP
       1400012d0 e8  5b  01       CALL       __security_check_cookie                          void __security_check_cookie(uin
                 00  00
       1400012d5 48  81  c4       ADD        RSP ,0x130
                 30  01  00  00
       1400012dc 5f              POP        RDI
       1400012dd c3              RET
                             LAB_1400012de                                   XREF[1]:     140005034 (*)   
       1400012de cc              INT3
       1400012df cc              ??         CCh
                             *************************************************************
                             *                           FUNCTION                          
                             *************************************************************
                             int  __fastcall  FUN_1400012e0 (char *  param_1 , undefined8
                               assume GS_OFFSET = 0xff00000000
             int               EAX:4          <RETURN>
             char *            RCX:8          param_1
             undefined8        RDX:8          param_2
             undefined8        R8:8           param_3
             undefined8        R9:8           param_4
             undefined8        Stack[0x20]:8  local_res20                             XREF[1]:     1400012ef (W)   
             undefined8        Stack[0x18]:8  local_res18                             XREF[1]:     1400012ea (W)   
             undefined8        Stack[0x10]:8  local_res10                             XREF[2]:     1400012e5 (W) , 
                                                                                                   1400012f8 (*)   
             undefined8        Stack[0x8]:8   local_res8                              XREF[2]:     1400012e0 (W) , 
                                                                                                   140001315 (R)   
             undefined8        Stack[-0x10]:8 local_10                                XREF[3]:     1400012fd (W) , 
                                                                                                   14000130d (R) , 
                                                                                                   140001326 (W)   
             undefined4        Stack[-0x18]:4 local_18                                XREF[2]:     140001322 (W) , 
                                                                                                   14000132f (R)   
                             FUN_1400012e0                                   XREF[2]:     FUN_140001250:140001283 (c) , 
                                                                                          14000503c (*)   
       1400012e0 48  89  4c       MOV        qword ptr [RSP  + local_res8 ],param_1
                 24  08
       1400012e5 48  89  54       MOV        qword ptr [RSP  + local_res10 ],param_2
                 24  10
       1400012ea 4c  89  44       MOV        qword ptr [RSP  + local_res18 ],param_3
                 24  18
       1400012ef 4c  89  4c       MOV        qword ptr [RSP  + local_res20 ],param_4
                 24  20
       1400012f4 48  83  ec  38    SUB        RSP ,0x38
       1400012f8 48  8d  44       LEA        RAX =>local_res10 ,[RSP  + 0x48 ]
                 24  48
       1400012fd 48  89  44       MOV        qword ptr [RSP  + local_10 ],RAX
                 24  28
       140001302 b9  01  00       MOV        param_1 ,0x1
                 00  00
       140001307 ff  15  73       CALL       qword ptr [->API-MS-WIN-CRT-STDIO-L1-1-0.DLL::   = 00003afc
                 1e  00  00
       14000130d 4c  8b  4c       MOV        param_4 ,qword ptr [RSP  + local_10 ]
                 24  28
       140001312 45  33  c0       XOR        param_3 ,param_3
       140001315 48  8b  54       MOV        param_2 ,qword ptr [RSP  + local_res8 ]
                 24  40
       14000131a 48  8b  c8       MOV        param_1 ,RAX
       14000131d e8  8e  fe       CALL       _vfprintf_l                                      int _vfprintf_l(FILE * _File, ch
                 ff  ff
       140001322 89  44  24  20    MOV        dword ptr [RSP  + local_18 ],EAX
       140001326 48  c7  44       MOV        qword ptr [RSP  + local_10 ],0x0
                 24  28  00 
                 00  00  00
       14000132f 8b  44  24  20    MOV        EAX ,dword ptr [RSP  + local_18 ]
       140001333 48  83  c4  38    ADD        RSP ,0x38
       140001337 c3              RET
                             LAB_140001338                                   XREF[1]:     140005040 (*)   
       140001338 cc              INT3
       140001339 cc              ??         CCh
       14000133a cc              ??         CCh
       14000133b cc              ??         CCh
       14000133c cc              ??         CCh
       14000133d cc              ??         CCh
       14000133e cc              ??         CCh
       14000133f cc              ??         CCh
                             *************************************************************
                             *                           FUNCTION                          
                             *************************************************************
                             int  __fastcall  FUN_140001340 (char *  param_1 , undefined8
                               assume GS_OFFSET = 0xff00000000
             int               EAX:4          <RETURN>
             char *            RCX:8          param_1
             undefined8        RDX:8          param_2
             undefined8        R8:8           param_3
             undefined8        R9:8           param_4
             undefined8        Stack[0x20]:8  local_res20                             XREF[1]:     14000134f (W)   
             undefined8        Stack[0x18]:8  local_res18                             XREF[1]:     14000134a (W)   
             undefined8        Stack[0x10]:8  local_res10                             XREF[2]:     140001345 (W) , 
                                                                                                   140001358 (*)   
             undefined8        Stack[0x8]:8   local_res8                              XREF[2]:     140001340 (W) , 
                                                                                                   140001372 (R)   
             undefined8        Stack[-0x10]:8 local_10                                XREF[3]:     14000135d (W) , 
                                                                                                   14000136a (R) , 
                                                                                                   140001383 (W)   
             undefined4        Stack[-0x18]:4 local_18                                XREF[2]:     14000137f (W) , 
                                                                                                   14000138c (R)   
                             FUN_140001340                                   XREF[2]:     FUN_140001250:140001294 (c) , 
                                                                                          140005048 (*)   
       140001340 48  89  4c       MOV        qword ptr [RSP  + local_res8 ],param_1
                 24  08
       140001345 48  89  54       MOV        qword ptr [RSP  + local_res10 ],param_2
                 24  10
       14000134a 4c  89  44       MOV        qword ptr [RSP  + local_res18 ],param_3
                 24  18
       14000134f 4c  89  4c       MOV        qword ptr [RSP  + local_res20 ],param_4
                 24  20
       140001354 48  83  ec  38    SUB        RSP ,0x38
       140001358 48  8d  44       LEA        RAX =>local_res10 ,[RSP  + 0x48 ]
                 24  48
       14000135d 48  89  44       MOV        qword ptr [RSP  + local_10 ],RAX
                 24  28
       140001362 33  c9           XOR        param_1 ,param_1
       140001364 ff  15  16       CALL       qword ptr [->API-MS-WIN-CRT-STDIO-L1-1-0.DLL::   = 00003afc
                 1e  00  00
       14000136a 4c  8b  4c       MOV        param_4 ,qword ptr [RSP  + local_10 ]
                 24  28
       14000136f 45  33  c0       XOR        param_3 ,param_3
       140001372 48  8b  54       MOV        param_2 ,qword ptr [RSP  + local_res8 ]
                 24  40
       140001377 48  8b  c8       MOV        param_1 ,RAX
       14000137a e8  81  fe       CALL       _vfprintf_l                                      int _vfprintf_l(FILE * _File, ch
                 ff  ff
       14000137f 89  44  24  20    MOV        dword ptr [RSP  + local_18 ],EAX
       140001383 48  c7  44       MOV        qword ptr [RSP  + local_10 ],0x0
                 24  28  00 
                 00  00  00
       14000138c 8b  44  24  20    MOV        EAX ,dword ptr [RSP  + local_18 ]
       140001390 48  83  c4  38    ADD        RSP ,0x38
       140001394 c3              RET
                             LAB_140001395                                   XREF[1]:     14000504c (*)   
       140001395 cc              INT3
       140001396 cc              ??         CCh
       140001397 cc              ??         CCh
                             *************************************************************
                             * Library Function - Single Match                            
                             *  __GSHandlerCheck                                          
                             *                                                            
                             * Libraries: Visual Studio 2017 Release, Visual Studio 20  ..
                             *************************************************************
                             undefined8  __fastcall  __GSHandlerCheck (undefined8  param
                               assume GS_OFFSET = 0xff00000000
             undefined8        RAX:8          <RETURN>
             undefined8        RCX:8          param_1
             ulonglong         RDX:8          param_2
             undefined8        R8:8           param_3
             longlong          R9:8           param_4
                             __GSHandlerCheck                                XREF[3]:     14000371c (*) , 140003738 (*) , 
                                                                                          140005054 (*)   
       140001398 48  83  ec  28    SUB        RSP ,0x28
       14000139c 4d  8b  41  38    MOV        param_3 ,qword ptr [param_4  + 0x38 ]
       1400013a0 48  8b  ca       MOV        param_1 ,param_2
       1400013a3 49  8b  d1       MOV        param_2 ,param_4
       1400013a6 e8  0d  00       CALL       __GSHandlerCheckCommon                           undefined __GSHandlerCheckCommon
                 00  00
       1400013ab b8  01  00       MOV        EAX ,0x1
                 00  00
       1400013b0 48  83  c4  28    ADD        RSP ,0x28
       1400013b4 c3              RET
                             LAB_1400013b5                                   XREF[1]:     140005058 (*)   
       1400013b5 cc              INT3
       1400013b6 cc              ??         CCh
       1400013b7 cc              ??         CCh
                             *************************************************************
                             * Library Function - Single Match                            
                             *  __GSHandlerCheckCommon                                    
                             *                                                            
                             * Libraries: Visual Studio 2017 Release, Visual Studio 20  ..
                             *************************************************************
                             undefined  __fastcall  __GSHandlerCheckCommon (ulonglong  p
                               assume GS_OFFSET = 0xff00000000
             undefined         AL:1           <RETURN>
             ulonglong         RCX:8          param_1
             longlong          RDX:8          param_2
             uint *            R8:8           param_3
                             __GSHandlerCheckCommon                          XREF[2]:     __GSHandlerCheck:1400013a6 (c) , 
                                                                                          140005060 (*)   
       1400013b8 40  53           PUSH       RBX
       1400013ba 45  8b  18       MOV        R11D ,dword ptr [param_3 ]
       1400013bd 48  8b  da       MOV        RBX ,param_2
       1400013c0 41  83  e3  f8    AND        R11D ,0xfffffff8
       1400013c4 4c  8b  c9       MOV        R9,param_1
       1400013c7 41  f6  00  04    TEST       byte ptr [param_3 ],0x4
       1400013cb 4c  8b  d1       MOV        R10 ,param_1
       1400013ce 74  13           JZ         LAB_1400013e3
       1400013d0 41  8b  40  08    MOV        EAX ,dword ptr [param_3  + 0x8 ]
       1400013d4 4d  63  50  04    MOVSXD     R10 ,dword ptr [param_3  + 0x4 ]
       1400013d8 f7  d8           NEG        EAX
       1400013da 4c  03  d1       ADD        R10 ,param_1
       1400013dd 48  63  c8       MOVSXD     param_1 ,EAX
       1400013e0 4c  23  d1       AND        R10 ,param_1
                             LAB_1400013e3                                   XREF[1]:     1400013ce (j)   
       1400013e3 49  63  c3       MOVSXD     RAX ,R11D
       1400013e6 4a  8b  14  10    MOV        param_2 ,qword ptr [RAX  + R10 *0x1 ]
       1400013ea 48  8b  43  10    MOV        RAX ,qword ptr [RBX  + 0x10 ]
       1400013ee 8b  48  08       MOV        param_1 ,dword ptr [RAX  + 0x8 ]
       1400013f1 48  8b  43  08    MOV        RAX ,qword ptr [RBX  + 0x8 ]
       1400013f5 f6  44  01       TEST       byte ptr [param_1  + RAX *0x1  + 0x3 ],0xf
                 03  0f
       1400013fa 74  0b           JZ         LAB_140001407
       1400013fc 0f  b6  44       MOVZX      EAX ,byte ptr [param_1  + RAX *0x1  + 0x3 ]
                 01  03
       140001401 83  e0  f0       AND        EAX ,0xfffffff0
       140001404 4c  03  c8       ADD        R9,RAX
                             LAB_140001407                                   XREF[1]:     1400013fa (j)   
       140001407 4c  33  ca       XOR        R9,param_2
       14000140a 49  8b  c9       MOV        param_1 ,R9
       14000140d 5b              POP        RBX
       14000140e e9  1d  00       JMP        __security_check_cookie                          void __security_check_cookie(uin
                 00  00
                             -- Flow Override: CALL_RETURN (CALL_TERMINATOR)
                             LAB_140001413                                   XREF[1]:     140005064 (*)   
  
                             *************************************************************
                             * Library Function - Single Match                            
                             *  __security_check_cookie                                   
                             *                                                            
                             * Libraries: Visual Studio 2015, Visual Studio 2017, Visu  ..
                             *************************************************************
                             void  __cdecl  __security_check_cookie (uintptr_t  _StackCo
                               assume GS_OFFSET = 0xff00000000
             void              <VOID>         <RETURN>
             uintptr_t         RCX:8          _StackCookie
                             __security_check_cookie                         XREF[4]:     FUN_1400010a0:14000117e (c) , 
                                                                                          FUN_140001250:1400012d0 (c) , 
                                                                                          __GSHandlerCheckCommon:14000140e
                                                                                          14000506c (*)   
       140001430 48  3b  0d       CMP        _StackCookie ,qword ptr [DAT_140004128 ]          = 00002B992DDFA232h
                 f1  2c  00  00
       140001437 f2  75  12       JNZ        LAB_14000144c
       14000143a 48  c1  c1  10    ROL        _StackCookie ,0x10
       14000143e 66  f7  c1       TEST       _StackCookie ,0xffff
                 ff  ff
       140001443 f2  75  02       JNZ        LAB_140001448
       140001446 f2  c3           RET
                             LAB_140001448                                   XREF[1]:     140001443 (j)   
       140001448 48  c1  c9  10    ROR        _StackCookie ,0x10
                             LAB_14000144c                                   XREF[1]:     140001437 (j)   
       14000144c e9  ab  02       JMP        __report_gsfailure                               void __report_gsfailure(uintptr_
                 00  00
                             -- Flow Override: CALL_RETURN (CALL_TERMINATOR)
                             LAB_140001451                                   XREF[1]:     140005070 (*)   
       140001451 cc              INT3
       140001452 cc              ??         CCh
       140001453 cc              ??         CCh
                             *************************************************************
                             *                           FUNCTION                          
                             *************************************************************
                             undefined  __fastcall  FUN_140001454 (void )
                               assume GS_OFFSET = 0xff00000000
             undefined         AL:1           <RETURN>
                             FUN_140001454                                   XREF[2]:     1400031f0 (*) , 140005078 (*)   
       140001454 40  53           PUSH       RBX
       140001456 48  83  ec  20    SUB        RSP ,0x20
       14000145a b9  01  00       MOV        ECX ,0x1
                 00  00
       14000145f e8  b6  0b       CALL       API-MS-WIN-CRT-RUNTIME-L1-1-0.DLL::_set_app_ty   undefined _set_app_type()
                 00  00
       140001464 e8  e3  06       CALL       FUN_140001b4c                                    undefined8 FUN_140001b4c(void)
                 00  00
       140001469 8b  c8           MOV        ECX ,EAX
       14000146b e8  e0  0b       CALL       API-MS-WIN-CRT-STDIO-L1-1-0.DLL::_set_fmode      errno_t _set_fmode(int _Mode)
                 00  00
       140001470 e8  cb  06       CALL       FUN_140001b40                                    undefined8 FUN_140001b40(void)
                 00  00
       140001475 8b  d8           MOV        EBX ,EAX
       140001477 e8  04  0c       CALL       API-MS-WIN-CRT-STDIO-L1-1-0.DLL::__p__commode    undefined __p__commode()
                 00  00
       14000147c b9  01  00       MOV        ECX ,0x1
                 00  00
       140001481 89  18           MOV        dword ptr [RAX ],EBX
       140001483 e8  44  04       CALL       __scrt_initialize_onexit_tables                  undefined8 __scrt_initialize_one
                 00  00
       140001488 84  c0           TEST       AL,AL
       14000148a 74  73           JZ         LAB_1400014ff
       14000148c e8  2f  09       CALL       FUN_140001dc0                                    undefined FUN_140001dc0(void)
                 00  00
       140001491 48  8d  0d       LEA        RCX ,[LAB_140001dfc ]
                 64  09  00  00
       140001498 e8  df  05       CALL       atexit                                           int atexit(_func_5014 * param_1)
                 00  00
       14000149d e8  a2  06       CALL       FUN_140001b44                                    undefined8 FUN_140001b44(void)
                 00  00
       1400014a2 8b  c8           MOV        ECX ,EAX
       1400014a4 e8  7d  0b       CALL       API-MS-WIN-CRT-RUNTIME-L1-1-0.DLL::_configure_   undefined _configure_narrow_argv
                 00  00
       1400014a9 85  c0           TEST       EAX ,EAX
       1400014ab 75  52           JNZ        LAB_1400014ff
       1400014ad e8  a2  06       CALL       FUN_140001b54                                    undefined FUN_140001b54(void)
                 00  00
       1400014b2 e8  d1  06       CALL       FUN_140001b88                                    bool FUN_140001b88(void)
                 00  00
       1400014b7 85  c0           TEST       EAX ,EAX
       1400014b9 74  0c           JZ         LAB_1400014c7
       1400014bb 48  8d  0d       LEA        RCX ,[FUN_140001b40 ]
                 7e  06  00  00
       1400014c2 e8  59  0b       CALL       API-MS-WIN-CRT-MATH-L1-1-0.DLL::__setusermathe   undefined __setusermatherr()
                 00  00
                             LAB_1400014c7                                   XREF[1]:     1400014b9 (j)   
       1400014c7 e8  9c  06       CALL       _guard_check_icall                               undefined _guard_check_icall(voi
                 00  00
       1400014cc e8  97  06       CALL       _guard_check_icall                               undefined _guard_check_icall(voi
                 00  00
       1400014d1 e8  6a  06       CALL       FUN_140001b40                                    undefined8 FUN_140001b40(void)
                 00  00
       1400014d6 8b  c8           MOV        ECX ,EAX
       1400014d8 e8  97  0b       CALL       API-MS-WIN-CRT-LOCALE-L1-1-0.DLL::_configthrea   int _configthreadlocale(int _Fla
                 00  00
       1400014dd e8  82  06       CALL       FUN_140001b64                                    undefined FUN_140001b64(void)
                 00  00
       1400014e2 84  c0           TEST       AL,AL
       1400014e4 74  05           JZ         LAB_1400014eb
       1400014e6 e8  41  0b       CALL       API-MS-WIN-CRT-RUNTIME-L1-1-0.DLL::_initialize   undefined _initialize_narrow_env
                 00  00
                             LAB_1400014eb                                   XREF[1]:     1400014e4 (j)   
       1400014eb e8  50  06       CALL       FUN_140001b40                                    undefined8 FUN_140001b40(void)
                 00  00
       1400014f0 e8  03  08       CALL       thunk_FUN_140001b40                              undefined8 thunk_FUN_140001b40(v
                 00  00
       1400014f5 85  c0           TEST       EAX ,EAX
       1400014f7 75  06           JNZ        LAB_1400014ff
       1400014f9 48  83  c4  20    ADD        RSP ,0x20
       1400014fd 5b              POP        RBX
       1400014fe c3              RET
                             LAB_1400014ff                                   XREF[3]:     14000148a (j) , 1400014ab (j) , 
                                                                                          1400014f7 (j)   
       1400014ff b9  07  00       MOV        ECX ,0x7
                 00  00
       140001504 e8  a3  06       CALL       __scrt_fastfail                                  undefined __scrt_fastfail(undefi
                 00  00
       140001509 cc              INT3
                             LAB_14000150a                                   XREF[1]:     14000507c (*)   
       14000150a cc              INT3
       14000150b cc              ??         CCh
                             *************************************************************
                             *                           FUNCTION                          
                             *************************************************************
                             undefined8  __fastcall  FUN_14000150c (void )
                               assume GS_OFFSET = 0xff00000000
             undefined8        RAX:8          <RETURN>
                             FUN_14000150c                                   XREF[2]:     1400031f8 (*) , 140005084 (*)   
       14000150c 48  83  ec  28    SUB        RSP ,0x28
       140001510 e8  57  06       CALL       FUN_140001b6c                                    undefined FUN_140001b6c(void)
                 00  00
       140001515 33  c0           XOR        EAX ,EAX
       140001517 48  83  c4  28    ADD        RSP ,0x28
       14000151b c3              RET
                             LAB_14000151c                                   XREF[2]:     140005088 (*) , 140005090 (*)   
       14000151c 48  83  ec  28    SUB        RSP ,0x28
       140001520 e8  2f  08       CALL       FUN_140001d54                                    undefined FUN_140001d54(void)
                 00  00
       140001525 e8  16  06       CALL       FUN_140001b40                                    undefined8 FUN_140001b40(void)
                 00  00
       14000152a 8b  c8           MOV        ECX ,EAX
       14000152c 48  83  c4  28    ADD        RSP ,0x28
       140001530 e9  45  0b       JMP        LAB_14000207a
                 00  00
                             LAB_140001535                                   XREF[1]:     140005094 (*)   
       140001535 cc              INT3
       140001536 cc              ??         CCh
       140001537 cc              ??         CCh
                             *************************************************************
                             *                           FUNCTION                          
                             *************************************************************
                             int  __fastcall  FUN_140001538 (void )
                               assume GS_OFFSET = 0xff00000000
             int               EAX:4          <RETURN>
             undefined8        Stack[0x10]:8  local_res10                             XREF[2]:     14000153d (W) , 
                                                                                                   140001684 (R)   
             undefined8        Stack[0x8]:8   local_res8                              XREF[2]:     140001538 (W) , 
                                                                                                   14000167f (R)   
             undefined1        Stack[-0x18]:1 local_18                                XREF[2]:     14000155c (W) , 
                                                                                                   1400015c8 (W)   
                             FUN_140001538                                   XREF[2]:     entry:1400016c1 (c) , 
                                                                                          14000509c (*)   
       140001538 48  89  5c       MOV        qword ptr [RSP  + local_res8 ],RBX
                 24  08
       14000153d 48  89  74       MOV        qword ptr [RSP  + local_res10 ],RSI
                 24  10
       140001542 57              PUSH       RDI
       140001543 48  83  ec  30    SUB        RSP ,0x30
       140001547 b9  01  00       MOV        ECX ,0x1
                 00  00
       14000154c e8  2f  03       CALL       __scrt_initialize_crt                            undefined8 __scrt_initialize_crt
                 00  00
       140001551 84  c0           TEST       AL,AL
       140001553 0f  84  36       JZ         LAB_14000168f
                 01  00  00
       140001559 40  32  f6       XOR        SIL ,SIL
       14000155c 40  88  74       MOV        byte ptr [RSP  + local_18 ],SIL
                 24  20
       140001561 e8  de  02       CALL       __scrt_acquire_startup_lock                      ulonglong __scrt_acquire_startup
                 00  00
       140001566 8a  d8           MOV        BL,AL
       140001568 8b  0d  72       MOV        ECX ,dword ptr [DAT_1400046e0 ]                   = ??
                 31  00  00
       14000156e 83  f9  01       CMP        ECX ,0x1
       140001571 0f  84  23       JZ         LAB_14000169a
                 01  00  00
       140001577 85  c9           TEST       ECX ,ECX
       140001579 75  4a           JNZ        LAB_1400015c5
       14000157b c7  05  5b       MOV        dword ptr [DAT_1400046e0 ],0x1                   = ??
                 31  00  00 
                 01  00  00  00
       140001585 48  8d  15       LEA        RDX ,[DAT_140003200 ]
                 74  1c  00  00
       14000158c 48  8d  0d       LEA        RCX ,[DAT_1400031e8 ]
                 55  1c  00  00
       140001593 e8  a6  0a       CALL       API-MS-WIN-CRT-RUNTIME-L1-1-0.DLL::_initterm_e   undefined _initterm_e()
                 00  00
       140001598 85  c0           TEST       EAX ,EAX
       14000159a 74  0a           JZ         LAB_1400015a6
       14000159c b8  ff  00       MOV        EAX ,0xff
                 00  00
       1400015a1 e9  d9  00       JMP        LAB_14000167f
                 00  00
                             LAB_1400015a6                                   XREF[1]:     14000159a (j)   
       1400015a6 48  8d  15       LEA        RDX ,[DAT_1400031e0 ]
                 33  1c  00  00
       1400015ad 48  8d  0d       LEA        RCX ,[DAT_1400031d0 ]
                 1c  1c  00  00
       1400015b4 e8  7f  0a       CALL       API-MS-WIN-CRT-RUNTIME-L1-1-0.DLL::_initterm     undefined _initterm()
                 00  00
       1400015b9 c7  05  1d       MOV        dword ptr [DAT_1400046e0 ],0x2                   = ??
                 31  00  00 
                 02  00  00  00
       1400015c3 eb  08           JMP        LAB_1400015cd
                             LAB_1400015c5                                   XREF[1]:     140001579 (j)   
       1400015c5 40  b6  01       MOV        SIL ,0x1
       1400015c8 40  88  74       MOV        byte ptr [RSP  + local_18 ],SIL
                 24  20
                             LAB_1400015cd                                   XREF[1]:     1400015c3 (j)   
       1400015cd 8a  cb           MOV        CL,BL
       1400015cf e8  1c  04       CALL       __scrt_release_startup_lock                      undefined __scrt_release_startup
                 00  00
       1400015d4 e8  bb  05       CALL       FUN_140001b94                                    undefined * FUN_140001b94(void)
                 00  00
       1400015d9 48  8b  d8       MOV        RBX ,RAX
       1400015dc 48  83  38  00    CMP        qword ptr [RAX ],0x0
       1400015e0 74  1e           JZ         LAB_140001600
       1400015e2 48  8b  c8       MOV        RCX ,RAX
       1400015e5 e8  6e  03       CALL       __scrt_is_nonwritable_in_current_image           ulonglong __scrt_is_nonwritable_
                 00  00
       1400015ea 84  c0           TEST       AL,AL
       1400015ec 74  12           JZ         LAB_140001600
       1400015ee 45  33  c0       XOR        R8D ,R8D
       1400015f1 41  8d  50  02    LEA        EDX ,[R8 + 0x2 ]
       1400015f5 33  c9           XOR        ECX ,ECX
       1400015f7 48  8b  03       MOV        RAX ,qword ptr [RBX ]
       1400015fa ff  15  c8       CALL       qword ptr [->_guard_dispatch_icall ]             undefined _guard_dispatch_icall(
                 1b  00  00                                                                   = 1400020c0
                             LAB_140001600                                   XREF[2]:     1400015e0 (j) , 1400015ec (j)   
       140001600 e8  97  05       CALL       FUN_140001b9c                                    undefined * FUN_140001b9c(void)
                 00  00
       140001605 48  8b  d8       MOV        RBX ,RAX
       140001608 48  83  38  00    CMP        qword ptr [RAX ],0x0
       14000160c 74  14           JZ         LAB_140001622
       14000160e 48  8b  c8       MOV        RCX ,RAX
       140001611 e8  42  03       CALL       __scrt_is_nonwritable_in_current_image           ulonglong __scrt_is_nonwritable_
                 00  00
       140001616 84  c0           TEST       AL,AL
       140001618 74  08           JZ         LAB_140001622
       14000161a 48  8b  0b       MOV        RCX ,qword ptr [RBX ]
       14000161d e8  4c  0a       CALL       API-MS-WIN-CRT-RUNTIME-L1-1-0.DLL::_register_t   undefined _register_thread_local
                 00  00
                             LAB_140001622                                   XREF[2]:     14000160c (j) , 140001618 (j)   
       140001622 e8  0b  0a       CALL       API-MS-WIN-CRT-RUNTIME-L1-1-0.DLL::_get_initia   undefined _get_initial_narrow_en
                 00  00
       140001627 48  8b  f8       MOV        RDI ,RAX
       14000162a e8  2d  0a       CALL       API-MS-WIN-CRT-RUNTIME-L1-1-0.DLL::__p___argv    undefined __p___argv()
                 00  00
       14000162f 48  8b  18       MOV        RBX ,qword ptr [RAX ]
       140001632 e8  1f  0a       CALL       API-MS-WIN-CRT-RUNTIME-L1-1-0.DLL::__p___argc    undefined __p___argc()
                 00  00
       140001637 4c  8b  c7       MOV        R8,RDI
       14000163a 48  8b  d3       MOV        RDX ,RBX
       14000163d 8b  08           MOV        ECX ,dword ptr [RAX ]
       14000163f e8  0c  fc       CALL       FUN_140001250                                    undefined FUN_140001250(undefine
                 ff  ff
       140001644 8b  d8           MOV        EBX ,EAX
       140001646 e8  b5  06       CALL       __scrt_is_managed_app                            ulonglong __scrt_is_managed_app(
                 00  00
       14000164b 84  c0           TEST       AL,AL
       14000164d 74  55           JZ         LAB_1400016a4
       14000164f 40  84  f6       TEST       SIL ,SIL
       140001652 75  05           JNZ        LAB_140001659
       140001654 e8  09  0a       CALL       API-MS-WIN-CRT-RUNTIME-L1-1-0.DLL::_cexit        void _cexit(void)
                 00  00
                             LAB_140001659                                   XREF[1]:     140001652 (j)   
       140001659 33  d2           XOR        EDX ,EDX
       14000165b b1  01           MOV        CL,0x1
       14000165d e8  b2  03       CALL       __scrt_uninitialize_crt                          undefined __scrt_uninitialize_cr
                 00  00
       140001662 8b  c3           MOV        EAX ,EBX
       140001664 eb  19           JMP        LAB_14000167f
      
                             LAB_14000167f                                   XREF[2]:     1400015a1 (j) , 140001664 (j)   
       14000167f 48  8b  5c       MOV        RBX ,qword ptr [RSP  + local_res8 ]
                 24  40
       140001684 48  8b  74       MOV        RSI ,qword ptr [RSP  + local_res10 ]
                 24  48
       140001689 48  83  c4  30    ADD        RSP ,0x30
       14000168d 5f              POP        RDI
       14000168e c3              RET
                             LAB_14000168f                                   XREF[1]:     140001553 (j)   
       14000168f b9  07  00       MOV        ECX ,0x7
                 00  00
       140001694 e8  13  05       CALL       __scrt_fastfail                                  undefined __scrt_fastfail(undefi
                 00  00
       140001699 90              NOP
                             LAB_14000169a                                   XREF[1]:     140001571 (j)   
       14000169a b9  07  00       MOV        ECX ,0x7
                 00  00
       14000169f e8  08  05       CALL       __scrt_fastfail                                  undefined __scrt_fastfail(undefi
                 00  00
                             LAB_1400016a4                                   XREF[1]:     14000164d (j)   
       1400016a4 8b  cb           MOV        ECX ,EBX
       1400016a6 e8  99  09       CALL       API-MS-WIN-CRT-RUNTIME-L1-1-0.DLL::exit          void exit(int _Code)
                 00  00
                             -- Flow Override: CALL_RETURN (CALL_TERMINATOR)
             assume GS_OFFSET = <UNKNOWN>
       1400016ab 90              ??         90h
       1400016ac 8b              ??         8Bh
       1400016ad cb              ??         CBh
             assume GS_OFFSET = 0xff00000000
       1400016ae e8              ??         E8h
             assume GS_OFFSET = <UNKNOWN>
       1400016af 97              ??         97h
       1400016b0 09              ??         09h
       1400016b1 00              ??         00h
       1400016b2 00              ??         00h
       1400016b3 90              ??         90h
                             *************************************************************
                             *                           FUNCTION                          
                             *************************************************************
                             undefined  __fastcall  entry (void )
                               assume GS_OFFSET = 0xff00000000
             undefined         AL:1           <RETURN>
                             entry                                           XREF[4]:     Entry Point (*) , 140000120 (*) , 
                                                                                          1400050a0 (*) , 1400050a8 (*)   
       1400016b4 48  83  ec  28    SUB        RSP ,0x28
       1400016b8 e8  d7  03       CALL       __security_init_cookie                           void __security_init_cookie(void)
                 00  00
       1400016bd 48  83  c4  28    ADD        RSP ,0x28
       1400016c1 e9  72  fe       JMP        FUN_140001538                                    int FUN_140001538(void)
                 ff  ff
                             -- Flow Override: CALL_RETURN (CALL_TERMINATOR)
                             LAB_1400016c6                                   XREF[1]:     1400050ac (*)   
       1400016c6 cc              INT3
       1400016c7 cc              ??         CCh
                             *************************************************************
                             * Library Function - Single Match                            
                             *  __raise_securityfailure                                   
                             *                                                            
                             * Libraries: Visual Studio 2015 Release, Visual Studio 20  ..
                             *************************************************************
                             undefined  __fastcall  __raise_securityfailure (_EXCEPTION
                               assume GS_OFFSET = 0xff00000000
             undefined         AL:1           <RETURN>
             _EXCEPTION_POI    RCX:8          param_1
                             __raise_securityfailure                         XREF[2]:     __report_gsfailure:1400017c3 (c) , 
                                                                                          1400050b4 (*)   
       1400016c8 40  53           PUSH       RBX
       1400016ca 48  83  ec  20    SUB        RSP ,0x20
       1400016ce 48  8b  d9       MOV        RBX ,param_1
       1400016d1 33  c9           XOR        param_1 ,param_1
       1400016d3 ff  15  47       CALL       qword ptr [->KERNEL32.DLL::SetUnhandledExcepti   = 00003e20
                 19  00  00
       1400016d9 48  8b  cb       MOV        param_1 ,RBX
       1400016dc ff  15  36       CALL       qword ptr [->KERNEL32.DLL::UnhandledExceptionF   = 00003e04
                 19  00  00
       1400016e2 ff  15  40       CALL       qword ptr [->KERNEL32.DLL::GetCurrentProcess ]   = 00003e3e
                 19  00  00
       1400016e8 48  8b  c8       MOV        param_1 ,RAX
       1400016eb ba  09  04       MOV        EDX ,0xc0000409
                 00  c0
       1400016f0 48  83  c4  20    ADD        RSP ,0x20
       1400016f4 5b              POP        RBX
       1400016f5 48  ff  25       JMP        qword ptr [->KERNEL32.DLL::TerminateProcess ]
                 74  19  00  00
                             *************************************************************
                             * Library Function - Single Match                            
                             *  __report_gsfailure                                        
                             *                                                            
                             * Libraries: Visual Studio 2015 Release, Visual Studio 20  ..
                             *************************************************************
                             noreturn  void  __cdecl  __report_gsfailure (uintptr_t  _Sta
                               assume GS_OFFSET = 0xff00000000
             void              <VOID>         <RETURN>
             uintptr_t         RCX:8          _StackCookie
             undefined8        Stack[0x10]:8  local_res10                             XREF[1]:     140001750 (R)   
             undefined8        Stack[0x8]:8   local_res8                              XREF[3]:     1400016fc (W) , 
                                                                                                   140001726 (R) , 
                                                                                                   140001732 (*)   
                             __report_gsfailure                              XREF[3]:     __security_check_cookie:14000144
                                                                                          1400050b8 (*) , 1400050c0 (*)   
       1400016fc 48  89  4c       MOV        qword ptr [RSP  + local_res8 ],_StackCookie
                 24  08
       140001701 48  83  ec  38    SUB        RSP ,0x38
       140001705 b9  17  00       MOV        _StackCookie ,0x17
                 00  00
       14000170a e8  8f  09       CALL       KERNEL32.DLL::IsProcessorFeaturePresent          BOOL IsProcessorFeaturePresent(D
                 00  00
       14000170f 85  c0           TEST       EAX ,EAX
       140001711 74  07           JZ         LAB_14000171a
       140001713 b9  02  00       MOV        _StackCookie ,0x2
                 00  00
       140001718 cd  29           INT        0x29
                             LAB_14000171a                                   XREF[1]:     140001711 (j)   
       14000171a 48  8d  0d       LEA        _StackCookie ,[DAT_140004210 ]                    = ??
                 ef  2a  00  00
       140001721 e8  aa  00       CALL       capture_previous_context                         undefined capture_previous_conte
                 00  00
       140001726 48  8b  44       MOV        RAX ,qword ptr [RSP  + local_res8 ]
                 24  38
       14000172b 48  89  05       MOV        qword ptr [DAT_140004308 ],RAX                   = ??
                 d6  2b  00  00
       140001732 48  8d  44       LEA        RAX =>local_res8 ,[RSP  + 0x38 ]
                 24  38
       140001737 48  83  c0  08    ADD        RAX ,0x8
       14000173b 48  89  05       MOV        qword ptr [DAT_1400042a8 ],RAX                   = ??
                 66  2b  00  00
       140001742 48  8b  05       MOV        RAX ,qword ptr [DAT_140004308 ]                   = ??
                 bf  2b  00  00
       140001749 48  89  05       MOV        qword ptr [DAT_140004180 ],RAX
                 30  2a  00  00
       140001750 48  8b  44       MOV        RAX ,qword ptr [RSP  + local_res10 ]
                 24  40
       140001755 48  89  05       MOV        qword ptr [DAT_140004290 ],RAX                   = ??
                 34  2b  00  00
       14000175c c7  05  0a       MOV        dword ptr [DAT_140004170 ],0xc0000409
                 2a  00  00 
                 09  04  00  c0
       140001766 c7  05  04       MOV        dword ptr [DAT_140004174 ],0x1
                 2a  00  00 
                 01  00  00  00
       140001770 c7  05  0e       MOV        dword ptr [DAT_140004188 ],0x1
                 2a  00  00 
                 01  00  00  00
       14000177a b8  08  00       MOV        EAX ,0x8
                 00  00
       14000177f 48  6b  c0  00    IMUL       RAX ,RAX ,0x0
       140001783 48  8d  0d       LEA        _StackCookie ,[DAT_140004190 ]
                 06  2a  00  00
       14000178a 48  c7  04       MOV        qword ptr [_StackCookie  + RAX *offset  DAT_14000
                 01  02  00 
                 00  00
       140001792 b8  08  00       MOV        EAX ,0x8
                 00  00
       140001797 48  6b  c0  00    IMUL       RAX ,RAX ,0x0
       14000179b 48  8b  0d       MOV        _StackCookie ,qword ptr [DAT_140004128 ]          = 00002B992DDFA232h
                 86  29  00  00
       1400017a2 48  89  4c       MOV        qword ptr [RSP  + RAX *0x1  + 0x20 ],_StackCookie
                 04  20
       1400017a7 b8  08  00       MOV        EAX ,0x8
                 00  00
       1400017ac 48  6b  c0  01    IMUL       RAX ,RAX ,0x1
       1400017b0 48  8b  0d       MOV        _StackCookie ,qword ptr [DAT_140004120 ]          = FFFFD466D2205DCDh
                 69  29  00  00
       1400017b7 48  89  4c       MOV        qword ptr [RSP  + RAX *0x1  + 0x20 ],_StackCookie
                 04  20
       1400017bc 48  8d  0d       LEA        _StackCookie ,[PTR_DAT_140003268 ]                = 140004170
                 a5  1a  00  00
       1400017c3 e8  00  ff       CALL       __raise_securityfailure                          undefined __raise_securityfailur
                 ff  ff
       1400017c8 48  83  c4  38    ADD        RSP ,0x38
       1400017cc c3              RET
                             LAB_1400017cd                                   XREF[1]:     1400050c4 (*)   
       1400017cd cc              INT3
       1400017ce cc              ??         CCh
       1400017cf cc              ??         CCh
                             *************************************************************
                             * Library Function - Single Match                            
                             *  capture_previous_context                                  
                             *                                                            
                             * Libraries: Visual Studio 2015 Release, Visual Studio 20  ..
                             *************************************************************
                             undefined  __fastcall  capture_previous_context (PCONTEXT 
                               assume GS_OFFSET = 0xff00000000
             undefined         AL:1           <RETURN>
             PCONTEXT          RCX:8          param_1
             undefined1        Stack[0x18]:1  local_res18                             XREF[1]:     14000181b (*)   
             undefined1        Stack[0x10]:1  local_res10                             XREF[1]:     140001806 (*)   
             undefined8        Stack[0x8]:8   local_res8                              XREF[2]:     1400017ed (*) , 
                                                                                                   14000180b (*)   
             undefined8        Stack[-0x20]:8 local_20                                XREF[1]:     140001800 (RW)  
             undefined8        Stack[-0x28]:8 local_28                                XREF[1]:     140001813 (W)   
             undefined8        Stack[-0x30]:8 local_30                                XREF[1]:     140001820 (W)   
             undefined8        Stack[-0x38]:8 local_38                                XREF[1]:     140001827 (W)   
                             capture_previous_context                        XREF[2]:     __report_gsfailure:140001721 (c) , 
                                                                                          1400050cc (*)   
       1400017d0 40  53           PUSH       RBX
       1400017d2 56              PUSH       RSI
       1400017d3 57              PUSH       RDI
       1400017d4 48  83  ec  40    SUB        RSP ,0x40
       1400017d8 48  8b  d9       MOV        RBX ,param_1
       1400017db ff  15  6f       CALL       qword ptr [->KERNEL32.DLL::RtlCaptureContext ]   = 00003dc2
                 18  00  00
       1400017e1 48  8b  b3       MOV        RSI ,qword ptr [RBX  + 0xf8 ]
                 f8  00  00  00
       1400017e8 33  ff           XOR        EDI ,EDI
                             LAB_1400017ea                                   XREF[1]:     140001837 (j)   
       1400017ea 45  33  c0       XOR        R8D ,R8D
       1400017ed 48  8d  54       LEA        RDX =>local_res8 ,[RSP  + 0x60 ]
                 24  60
       1400017f2 48  8b  ce       MOV        param_1 ,RSI
       1400017f5 ff  15  0d       CALL       qword ptr [->KERNEL32.DLL::RtlLookupFunctionEn   = 00003dd6
                 18  00  00
       1400017fb 48  85  c0       TEST       RAX ,RAX
       1400017fe 74  39           JZ         LAB_140001839
       140001800 48  83  64       AND        qword ptr [RSP  + local_20 ],0x0
                 24  38  00
       140001806 48  8d  4c       LEA        param_1 =>local_res10 ,[RSP  + 0x68 ]
                 24  68
       14000180b 48  8b  54       MOV        RDX =>local_res8 ,qword ptr [RSP  + 0x60 ]
                 24  60
       140001810 4c  8b  c8       MOV        R9,RAX
       140001813 48  89  4c       MOV        qword ptr [RSP  + local_28 ],param_1
                 24  30
       140001818 4c  8b  c6       MOV        R8,RSI
       14000181b 48  8d  4c       LEA        param_1 =>local_res18 ,[RSP  + 0x70 ]
                 24  70
       140001820 48  89  4c       MOV        qword ptr [RSP  + local_30 ],param_1
                 24  28
       140001825 33  c9           XOR        param_1 ,param_1
       140001827 48  89  5c       MOV        qword ptr [RSP  + local_38 ],RBX
                 24  20
       14000182c ff  15  de       CALL       qword ptr [->KERNEL32.DLL::RtlVirtualUnwind ]    = 00003df0
                 17  00  00
       140001832 ff  c7           INC        EDI
       140001834 83  ff  02       CMP        EDI ,0x2
       140001837 7c  b1           JL         LAB_1400017ea
                             LAB_140001839                                   XREF[1]:     1400017fe (j)   
       140001839 48  83  c4  40    ADD        RSP ,0x40
       14000183d 5f              POP        RDI
       14000183e 5e              POP        RSI
       14000183f 5b              POP        RBX
       140001840 c3              RET
                             LAB_140001841                                   XREF[1]:     1400050d0 (*)   
       140001841 cc              INT3
       140001842 cc              ??         CCh
       140001843 cc              ??         CCh
                             *************************************************************
                             * Library Function - Single Match                            
                             *  __scrt_acquire_startup_lock                               
                             *                                                            
                             * Libraries: Visual Studio 2015 Release, Visual Studio 20  ..
                             *************************************************************
                             ulonglong  __fastcall  __scrt_acquire_startup_lock (void )
                               assume GS_OFFSET = 0xff00000000
             ulonglong         RAX:8          <RETURN>
                             __scrt_acquire_startup_lock                     XREF[2]:     FUN_140001538:140001561 (c) , 
                                                                                          1400050d8 (*)   
       140001844 48  83  ec  28    SUB        RSP ,0x28
       140001848 e8  8f  07       CALL       __scrt_is_ucrt_dll_in_use                        bool __scrt_is_ucrt_dll_in_use(v
                 00  00
       14000184d 85  c0           TEST       EAX ,EAX
       14000184f 74  21           JZ         LAB_140001872
       140001851 65  48  8b       MOV        RAX ,qword ptr GS:[offset  ->ExceptionList ]       = ff00000000
                 04  25  30 
                 00  00  00
       14000185a 48  8b  48  08    MOV        RCX ,qword ptr [RAX  + offset  StackBase ]          = 00000000
       14000185e eb  05           JMP        LAB_140001865
                             LAB_140001860                                   XREF[1]:     140001870 (j)   
       140001860 48  3b  c8       CMP        RCX ,RAX
       140001863 74  14           JZ         LAB_140001879
                             LAB_140001865                                   XREF[1]:     14000185e (j)   
       140001865 33  c0           XOR        EAX ,EAX
       140001867 f0  48  0f       CMPXCHG.   qword ptr [DAT_1400046e8 ],RCX                   = ??
                 b1  0d  78 
                 2e  00  00
       140001870 75  ee           JNZ        LAB_140001860
                             LAB_140001872                                   XREF[1]:     14000184f (j)   
       140001872 32  c0           XOR        AL,AL
                             LAB_140001874                                   XREF[1]:     14000187b (j)   
       140001874 48  83  c4  28    ADD        RSP ,0x28
       140001878 c3              RET
                             LAB_140001879                                   XREF[1]:     140001863 (j)   
       140001879 b0  01           MOV        AL,0x1
       14000187b eb  f7           JMP        LAB_140001874
                             LAB_14000187d                                   XREF[1]:     1400050dc (*)   
       14000187d cc              INT3
       14000187e cc              ??         CCh
       14000187f cc              ??         CCh
                             *************************************************************
                             * Library Function - Single Match                            
                             *  __scrt_initialize_crt                                     
                             *                                                            
                             * Library: Visual Studio 2019 Release                        *
                             *************************************************************
                             undefined8  __fastcall  __scrt_initialize_crt (int  param_1 )
                               assume GS_OFFSET = 0xff00000000
             undefined8        RAX:8          <RETURN>
             int               ECX:4          param_1
                             __scrt_initialize_crt                           XREF[2]:     FUN_140001538:14000154c (c) , 
                                                                                          1400050e4 (*)   
       140001880 40  53           PUSH       RBX
       140001882 48  83  ec  20    SUB        RSP ,0x20
       140001886 0f  b6  05       MOVZX      EAX ,byte ptr [DAT_1400046f0 ]                    = ??
                 63  2e  00  00
       14000188d 85  c9           TEST       param_1 ,param_1
       14000188f bb  01  00       MOV        EBX ,0x1
                 00  00
       140001894 0f  44  c3       CMOVZ      EAX ,EBX
       140001897 88  05  53       MOV        byte ptr [DAT_1400046f0 ],AL                     = ??
                 2e  00  00
       14000189d e8  96  05       CALL       __isa_available_init                             undefined8 __isa_available_init(
                 00  00
       1400018a2 e8  bd  02       CALL       FUN_140001b64                                    undefined FUN_140001b64(void)
                 00  00
       1400018a7 84  c0           TEST       AL,AL
       1400018a9 75  04           JNZ        LAB_1400018af
                             LAB_1400018ab                                   XREF[1]:     1400018bf (j)   
       1400018ab 32  c0           XOR        AL,AL
       1400018ad eb  14           JMP        LAB_1400018c3
                             LAB_1400018af                                   XREF[1]:     1400018a9 (j)   
       1400018af e8  b0  02       CALL       FUN_140001b64                                    undefined FUN_140001b64(void)
                 00  00
       1400018b4 84  c0           TEST       AL,AL
       1400018b6 75  09           JNZ        LAB_1400018c1
       1400018b8 33  c9           XOR        param_1 ,param_1
       1400018ba e8  a5  02       CALL       FUN_140001b64                                    undefined FUN_140001b64(void)
                 00  00
       1400018bf eb  ea           JMP        LAB_1400018ab
                             LAB_1400018c1                                   XREF[1]:     1400018b6 (j)   
       1400018c1 8a  c3           MOV        AL,BL
                             LAB_1400018c3                                   XREF[1]:     1400018ad (j)   
       1400018c3 48  83  c4  20    ADD        RSP ,0x20
       1400018c7 5b              POP        RBX
       1400018c8 c3              RET
                             LAB_1400018c9                                   XREF[1]:     1400050e8 (*)   
       1400018c9 cc              INT3
       1400018ca cc              ??         CCh
       1400018cb cc              ??         CCh
                             *************************************************************
                             * Library Function - Single Match                            
                             *  __scrt_initialize_onexit_tables                           
                             *                                                            
                             * Library: Visual Studio 2019 Release                        *
                             *************************************************************
                             undefined8  __fastcall  __scrt_initialize_onexit_tables (u
                               assume GS_OFFSET = 0xff00000000
             undefined8        RAX:8          <RETURN>
             uint              ECX:4          param_1
                             __scrt_initialize_onexit_tables                 XREF[2]:     FUN_140001454:140001483 (c) , 
                                                                                          1400050f0 (*)   
       1400018cc 40  53           PUSH       RBX
       1400018ce 48  83  ec  20    SUB        RSP ,0x20
       1400018d2 80  3d  18       CMP        byte ptr [DAT_1400046f1 ],0x0                    = ??
                 2e  00  00  00
       1400018d9 8b  d9           MOV        EBX ,param_1
       1400018db 75  67           JNZ        LAB_140001944
       1400018dd 83  f9  01       CMP        param_1 ,0x1
       1400018e0 77  6a           JA         LAB_14000194c
       1400018e2 e8  f5  06       CALL       __scrt_is_ucrt_dll_in_use                        bool __scrt_is_ucrt_dll_in_use(v
                 00  00
       1400018e7 85  c0           TEST       EAX ,EAX
       1400018e9 74  28           JZ         LAB_140001913
       1400018eb 85  db           TEST       EBX ,EBX
       1400018ed 75  24           JNZ        LAB_140001913
       1400018ef 48  8d  0d       LEA        param_1 ,[DAT_1400046f8 ]                         = ??
                 02  2e  00  00
       1400018f6 e8  8b  07       CALL       API-MS-WIN-CRT-RUNTIME-L1-1-0.DLL::_initialize   undefined _initialize_onexit_tab
                 00  00
       1400018fb 85  c0           TEST       EAX ,EAX
       1400018fd 75  10           JNZ        LAB_14000190f
       1400018ff 48  8d  0d       LEA        param_1 ,[DAT_140004710 ]                         = ??
                 0a  2e  00  00
       140001906 e8  7b  07       CALL       API-MS-WIN-CRT-RUNTIME-L1-1-0.DLL::_initialize   undefined _initialize_onexit_tab
                 00  00
       14000190b 85  c0           TEST       EAX ,EAX
       14000190d 74  2e           JZ         LAB_14000193d
                             LAB_14000190f                                   XREF[1]:     1400018fd (j)   
       14000190f 32  c0           XOR        AL,AL
       140001911 eb  33           JMP        LAB_140001946
                             LAB_140001913                                   XREF[2]:     1400018e9 (j) , 1400018ed (j)   
       140001913 66  0f  6f       MOVDQA     XMM0 ,xmmword ptr [DAT_140003280 ]                = FFh
                 05  65  19 
                 00  00
       14000191b 48  83  c8  ff    OR         RAX ,-0x1
       14000191f f3  0f  7f       MOVDQU     xmmword ptr [DAT_1400046f8 ],XMM0                = ??
                 05  d1  2d 
                 00  00
       140001927 48  89  05       MOV        qword ptr [DAT_140004708 ],RAX                   = ??
                 da  2d  00  00
       14000192e f3  0f  7f       MOVDQU     xmmword ptr [DAT_140004710 ],XMM0                = ??
                 05  da  2d 
                 00  00
       140001936 48  89  05       MOV        qword ptr [DAT_140004720 ],RAX                   = ??
                 e3  2d  00  00
                             LAB_14000193d                                   XREF[1]:     14000190d (j)   
       14000193d c6  05  ad       MOV        byte ptr [DAT_1400046f1 ],0x1                    = ??
                 2d  00  00  01
                             LAB_140001944                                   XREF[1]:     1400018db (j)   
       140001944 b0  01           MOV        AL,0x1
                             LAB_140001946                                   XREF[1]:     140001911 (j)   
       140001946 48  83  c4  20    ADD        RSP ,0x20
       14000194a 5b              POP        RBX
       14000194b c3              RET
                             LAB_14000194c                                   XREF[1]:     1400018e0 (j)   
       14000194c b9  05  00       MOV        param_1 ,0x5
                 00  00
       140001951 e8  56  02       CALL       __scrt_fastfail                                  undefined __scrt_fastfail(undefi
                 00  00
       140001956 cc              INT3
                             LAB_140001957                                   XREF[1]:     1400050f4 (*)   
       140001957 cc              INT3
                             *************************************************************
                             * Library Function - Single Match                            
                             *  __scrt_is_nonwritable_in_current_image                    *
                             *                                                            
                             * Library: Visual Studio 2019 Release                        *
                             *************************************************************
                             ulonglong  __fastcall  __scrt_is_nonwritable_in_current_im
                               assume GS_OFFSET = 0xff00000000
             ulonglong         RAX:8          <RETURN>
             longlong          RCX:8          param_1
             undefined8        Stack[-0x18]:8 local_18                                XREF[1]:     1400019ab (*)   
                             __scrt_is_nonwritable_in_current_image          XREF[3]:     FUN_140001538:1400015e5 (c) , 
                                                                                          FUN_140001538:140001611 (c) , 
                                                                                          1400050fc (*)   
       140001958 48  83  ec  18    SUB        RSP ,0x18
       14000195c 4c  8b  c1       MOV        R8,param_1
       14000195f b8  4d  5a       MOV        EAX ,0x5a4d
                 00  00
       140001964 66  39  05       CMP        word ptr [IMAGE_DOS_HEADER_140000000 ],AX
                 95  e6  ff  ff
       14000196b 75  78           JNZ        LAB_1400019e5
       14000196d 48  63  0d       MOVSXD     param_1 ,dword ptr [IMAGE_DOS_HEADER_140000000.
                 c8  e6  ff  ff
       140001974 48  8d  15       LEA        RDX ,[IMAGE_DOS_HEADER_140000000 ]
                 85  e6  ff  ff
       14000197b 48  03  ca       ADD        param_1 ,RDX
       14000197e 81  39  50       CMP        dword ptr [param_1 ]=>IMAGE_NT_HEADERS64_140000
                 45  00  00
       140001984 75  5f           JNZ        LAB_1400019e5
       140001986 b8  0b  02       MOV        EAX ,0x20b
                 00  00
       14000198b 66  39  41  18    CMP        word ptr [param_1  + 0x18 ]=>IMAGE_NT_HEADERS64_
       14000198f 75  54           JNZ        LAB_1400019e5
       140001991 4c  2b  c2       SUB        R8,RDX
       140001994 0f  b7  41  14    MOVZX      EAX ,word ptr [param_1  + 0x14 ]=>IMAGE_NT_HEADER
       140001998 48  8d  51  18    LEA        RDX ,[param_1  + 0x18 ]=>IMAGE_NT_HEADERS64_14000
       14000199c 48  03  d0       ADD        RDX ,RAX
       14000199f 0f  b7  41  06    MOVZX      EAX ,word ptr [param_1  + 0x6 ]=>IMAGE_NT_HEADERS
       1400019a3 48  8d  0c  80    LEA        param_1 ,[RAX  + RAX *0x4 ]
       1400019a7 4c  8d  0c  ca    LEA        R9,[RDX  + param_1 *0x8 ]=>DAT_1400002f0
                             LAB_1400019ab                                   XREF[1]:     1400019ca (j)   
       1400019ab 48  89  14  24    MOV        qword ptr [RSP ]=>local_18 ,RDX =>IMAGE_SECTION_H
       1400019af 49  3b  d1       CMP        RDX ,R9
       1400019b2 74  18           JZ         LAB_1400019cc
       1400019b4 8b  4a  0c       MOV        param_1 ,dword ptr [RDX  + offset  IMAGE_SECTION_
       1400019b7 4c  3b  c1       CMP        R8,param_1
       1400019ba 72  0a           JC         LAB_1400019c6
       1400019bc 8b  42  08       MOV        EAX ,dword ptr [RDX  + offset  IMAGE_SECTION_HEAD
       1400019bf 03  c1           ADD        EAX ,param_1
       1400019c1 4c  3b  c0       CMP        R8,RAX
       1400019c4 72  08           JC         LAB_1400019ce
                             LAB_1400019c6                                   XREF[1]:     1400019ba (j)   
       1400019c6 48  83  c2  28    ADD        RDX ,0x28
       1400019ca eb  df           JMP        LAB_1400019ab
                             LAB_1400019cc                                   XREF[1]:     1400019b2 (j)   
       1400019cc 33  d2           XOR        EDX ,EDX
                             LAB_1400019ce                                   XREF[1]:     1400019c4 (j)   
       1400019ce 48  85  d2       TEST       RDX ,RDX
       1400019d1 75  04           JNZ        LAB_1400019d7
       1400019d3 32  c0           XOR        AL,AL
       1400019d5 eb  14           JMP        LAB_1400019eb
                             LAB_1400019d7                                   XREF[1]:     1400019d1 (j)   
       1400019d7 83  7a  24  00    CMP        dword ptr [RDX  + offset  IMAGE_SECTION_HEADER_1
       1400019db 7d  04           JGE        LAB_1400019e1
       1400019dd 32  c0           XOR        AL,AL
       1400019df eb  0a           JMP        LAB_1400019eb
                             LAB_1400019e1                                   XREF[1]:     1400019db (j)   
       1400019e1 b0  01           MOV        AL,0x1
       1400019e3 eb  06           JMP        LAB_1400019eb
                             LAB_1400019e5                                   XREF[3]:     14000196b (j) , 140001984 (j) , 
                                                                                          14000198f (j)   
       1400019e5 32  c0           XOR        AL,AL
       1400019e7 eb  02           JMP        LAB_1400019eb
       1400019e9 32              ??         32h    2
       1400019ea c0              ??         C0h
                             LAB_1400019eb                                   XREF[4]:     1400019d5 (j) , 1400019df (j) , 
                                                                                          1400019e3 (j) , 1400019e7 (j)   
       1400019eb 48  83  c4  18    ADD        RSP ,0x18
       1400019ef c3              RET
                             *************************************************************
                             * Library Function - Single Match                            
                             *  __scrt_release_startup_lock                               
                             *                                                            
                             * Libraries: Visual Studio 2015 Release, Visual Studio 20  ..
                             *************************************************************
                             undefined  __fastcall  __scrt_release_startup_lock (char  p
                               assume GS_OFFSET = 0xff00000000
             undefined         AL:1           <RETURN>
             char              CL:1           param_1
                             __scrt_release_startup_lock                     XREF[3]:     FUN_140001538:1400015cf (c) , 
                                                                                          140005100 (*) , 140005108 (*)   
       1400019f0 40  53           PUSH       RBX
       1400019f2 48  83  ec  20    SUB        RSP ,0x20
       1400019f6 8a  d9           MOV        BL,param_1
       1400019f8 e8  df  05       CALL       __scrt_is_ucrt_dll_in_use                        bool __scrt_is_ucrt_dll_in_use(v
                 00  00
       1400019fd 33  d2           XOR        EDX ,EDX
       1400019ff 85  c0           TEST       EAX ,EAX
       140001a01 74  0b           JZ         LAB_140001a0e
       140001a03 84  db           TEST       BL,BL
       140001a05 75  07           JNZ        LAB_140001a0e
       140001a07 48  87  15       XCHG       qword ptr [DAT_1400046e8 ],RDX                   = ??
                 da  2c  00  00
                             LAB_140001a0e                                   XREF[2]:     140001a01 (j) , 140001a05 (j)   
       140001a0e 48  83  c4  20    ADD        RSP ,0x20
       140001a12 5b              POP        RBX
       140001a13 c3              RET
                             *************************************************************
                             * Library Function - Single Match                            
                             *  __scrt_uninitialize_crt                                   
                             *                                                            
                             * Library: Visual Studio 2019 Release                        *
                             *************************************************************
                             undefined  __fastcall  __scrt_uninitialize_crt (undefined8
                               assume GS_OFFSET = 0xff00000000
             undefined         AL:1           <RETURN>
             undefined8        RCX:8          param_1
             char              DL:1           param_2
                             __scrt_uninitialize_crt                         XREF[3]:     FUN_140001538:14000165d (c) , 
                                                                                          14000510c (*) , 140005114 (*)   
       140001a14 40  53           PUSH       RBX
       140001a16 48  83  ec  20    SUB        RSP ,0x20
       140001a1a 80  3d  cf       CMP        byte ptr [DAT_1400046f0 ],0x0                    = ??
                 2c  00  00  00
       140001a21 8a  d9           MOV        BL,param_1
       140001a23 74  04           JZ         LAB_140001a29
       140001a25 84  d2           TEST       param_2 ,param_2
       140001a27 75  0c           JNZ        LAB_140001a35
                             LAB_140001a29                                   XREF[1]:     140001a23 (j)   
       140001a29 e8  36  01       CALL       FUN_140001b64                                    undefined FUN_140001b64(void)
                 00  00
       140001a2e 8a  cb           MOV        param_1 ,BL
       140001a30 e8  2f  01       CALL       FUN_140001b64                                    undefined FUN_140001b64(void)
                 00  00
                             LAB_140001a35                                   XREF[1]:     140001a27 (j)   
       140001a35 b0  01           MOV        AL,0x1
       140001a37 48  83  c4  20    ADD        RSP ,0x20
       140001a3b 5b              POP        RBX
       140001a3c c3              RET
                             LAB_140001a3d                                   XREF[1]:     140005118 (*)   
       140001a3d cc              INT3
       140001a3e cc              ??         CCh
       140001a3f cc              ??         CCh
                             *************************************************************
                             * Library Function - Single Match                            
                             *  _onexit                                                   
                             *                                                            
                             * Library: Visual Studio 2019 Release                        *
                             *************************************************************
                             _onexit_t  __cdecl  _onexit (_onexit_t  _Func )
                               assume GS_OFFSET = 0xff00000000
             _onexit_t         RAX:8          <RETURN>
             _onexit_t         RCX:8          _Func
                             _onexit                                         XREF[2]:     atexit:140001a80 (c) , 
                                                                                          140005120 (*)   
       140001a40 40  53           PUSH       RBX
       140001a42 48  83  ec  20    SUB        RSP ,0x20
       140001a46 48  83  3d       CMP        qword ptr [DAT_1400046f8 ],-0x1                  = ??
                 aa  2c  00 
                 00  ff
       140001a4e 48  8b  d9       MOV        RBX ,_Func
       140001a51 75  07           JNZ        LAB_140001a5a
       140001a53 e8  3a  06       CALL       API-MS-WIN-CRT-RUNTIME-L1-1-0.DLL::_crt_atexit   undefined _crt_atexit()
                 00  00
       140001a58 eb  0f           JMP        LAB_140001a69
                             LAB_140001a5a                                   XREF[1]:     140001a51 (j)   
       140001a5a 48  8b  d3       MOV        RDX ,RBX
       140001a5d 48  8d  0d       LEA        _Func ,[DAT_1400046f8 ]                           = ??
                 94  2c  00  00
       140001a64 e8  23  06       CALL       API-MS-WIN-CRT-RUNTIME-L1-1-0.DLL::_register_o   undefined _register_onexit_funct
                 00  00
                             LAB_140001a69                                   XREF[1]:     140001a58 (j)   
       140001a69 33  d2           XOR        EDX ,EDX
       140001a6b 85  c0           TEST       EAX ,EAX
       140001a6d 48  0f  44  d3    CMOVZ      RDX ,RBX
       140001a71 48  8b  c2       MOV        RAX ,RDX
       140001a74 48  83  c4  20    ADD        RSP ,0x20
       140001a78 5b              POP        RBX
       140001a79 c3              RET
                             LAB_140001a7a                                   XREF[1]:     140005124 (*)   
       140001a7a cc              INT3
       140001a7b cc              ??         CCh
                             *************************************************************
                             * Library Function - Single Match                            
                             *  atexit                                                     
                             *                                                            
                             * Library: Visual Studio 2019 Release                        *
                             *************************************************************
                             int  __cdecl  atexit (_func_5014 *  param_1 )
                               assume GS_OFFSET = 0xff00000000
             int               EAX:4          <RETURN>
             _func_5014 *      RCX:8          param_1
                             atexit                                          XREF[2]:     FUN_140001454:140001498 (c) , 
                                                                                          14000512c (*)   
       140001a7c 48  83  ec  28    SUB        RSP ,0x28
       140001a80 e8  bb  ff       CALL       _onexit                                          _onexit_t _onexit(_onexit_t _Fun
                 ff  ff
       140001a85 48  f7  d8       NEG        RAX
       140001a88 1b  c0           SBB        EAX ,EAX
       140001a8a f7  d8           NEG        EAX
       140001a8c ff  c8           DEC        EAX
       140001a8e 48  83  c4  28    ADD        RSP ,0x28
       140001a92 c3              RET
                             LAB_140001a93                                   XREF[1]:     140005130 (*)   
       140001a93 cc              INT3
                             *************************************************************
                             * Library Function - Single Match                            
                             *  __security_init_cookie                                    
                             *                                                            
                             * Libraries: Visual Studio 2017 Release, Visual Studio 20  ..
                             *************************************************************
                             void  __cdecl  __security_init_cookie (void )
                               assume GS_OFFSET = 0xff00000000
             void              <VOID>         <RETURN>
             undefined8        Stack[0x20]:8  local_res20                             XREF[2]:     140001a94 (W) , 
                                                                                                   140001b2b (R)   
             undefined8        Stack[0x18]:8  local_res18                             XREF[3]:     140001ae2 (*) , 
                                                                                                   140001af0 (R) , 
                                                                                                   140001afb (R)   
             undefined8        Stack[0x10]:8  local_res10                             XREF[3]:     140001ab7 (RW), 
                                                                                                   140001abc (*) , 
                                                                                                   140001ac6 (R)   
             undefined8        Stack[0x8]:8   local_res8                              XREF[5]:     140001aca (W) , 
                                                                                                   140001ad6 (RW), 
                                                                                                   140001ae6 (RW), 
                                                                                                   140001af3 (*) , 
                                                                                                   140001aff (R)   
                             __security_init_cookie                          XREF[2]:     entry:1400016b8 (c) , 
                                                                                          140005138 (*)   
       140001a94 48  89  5c       MOV        qword ptr [RSP  + local_res20 ],RBX
                 24  20
       140001a99 55              PUSH       RBP
       140001a9a 48  8b  ec       MOV        RBP ,RSP
       140001a9d 48  83  ec  20    SUB        RSP ,0x20
       140001aa1 48  8b  05       MOV        RAX ,qword ptr [DAT_140004128 ]                   = 00002B992DDFA232h
                 80  26  00  00
       140001aa8 48  bb  32       MOV        RBX ,0x2b992ddfa232
                 a2  df  2d 
                 99  2b  00  00
       140001ab2 48  3b  c3       CMP        RAX ,RBX
       140001ab5 75  74           JNZ        LAB_140001b2b
       140001ab7 48  83  65       AND        qword ptr [RBP  + local_res10 ],0x0
                 18  00
       140001abc 48  8d  4d  18    LEA        RCX =>local_res10 ,[RBP  + 0x18 ]
       140001ac0 ff  15  82       CALL       qword ptr [->KERNEL32.DLL::GetSystemTimeAsFile   = 00003ec8
                 15  00  00
       140001ac6 48  8b  45  18    MOV        RAX ,qword ptr [RBP  + local_res10 ]
       140001aca 48  89  45  10    MOV        qword ptr [RBP  + local_res8 ],RAX
       140001ace ff  15  2c       CALL       qword ptr [->KERNEL32.DLL::GetCurrentThreadId ]  = 00003eb2
                 15  00  00
       140001ad4 8b  c0           MOV        EAX ,EAX
       140001ad6 48  31  45  10    XOR        qword ptr [RBP  + local_res8 ],RAX
       140001ada ff  15  78       CALL       qword ptr [->KERNEL32.DLL::GetCurrentProcessId ] = 00003e9c
                 15  00  00
       140001ae0 8b  c0           MOV        EAX ,EAX
       140001ae2 48  8d  4d  20    LEA        RCX =>local_res18 ,[RBP  + 0x20 ]
       140001ae6 48  31  45  10    XOR        qword ptr [RBP  + local_res8 ],RAX
       140001aea ff  15  70       CALL       qword ptr [->KERNEL32.DLL::QueryPerformanceCou   = 00003e82
                 15  00  00
       140001af0 8b  45  20       MOV        EAX ,dword ptr [RBP  + local_res18 ]
       140001af3 48  8d  4d  10    LEA        RCX =>local_res8 ,[RBP  + 0x10 ]
       140001af7 48  c1  e0  20    SHL        RAX ,0x20
       140001afb 48  33  45  20    XOR        RAX ,qword ptr [RBP  + local_res18 ]
       140001aff 48  33  45  10    XOR        RAX ,qword ptr [RBP  + local_res8 ]
       140001b03 48  33  c1       XOR        RAX ,RCX
       140001b06 48  b9  ff       MOV        RCX ,0xffffffffffff
                 ff  ff  ff 
                 ff  ff  00  00
       140001b10 48  23  c1       AND        RAX ,RCX
       140001b13 48  b9  33       MOV        RCX ,0x2b992ddfa233
                 a2  df  2d 
                 99  2b  00  00
       140001b1d 48  3b  c3       CMP        RAX ,RBX
       140001b20 48  0f  44  c1    CMOVZ      RAX ,RCX
       140001b24 48  89  05       MOV        qword ptr [DAT_140004128 ],RAX                   = 00002B992DDFA232h
                 fd  25  00  00
                             LAB_140001b2b                                   XREF[1]:     140001ab5 (j)   
       140001b2b 48  8b  5c       MOV        RBX ,qword ptr [RSP  + local_res20 ]
                 24  48
       140001b30 48  f7  d0       NOT        RAX
       140001b33 48  89  05       MOV        qword ptr [DAT_140004120 ],RAX                   = FFFFD466D2205DCDh
                 e6  25  00  00
       140001b3a 48  83  c4  20    ADD        RSP ,0x20
       140001b3e 5d              POP        RBP
       140001b3f c3              RET
                             *************************************************************
                             *                           FUNCTION                          
                             *************************************************************
                             undefined8  __fastcall  FUN_140001b40 (void )
                               assume GS_OFFSET = 0xff00000000
             undefined8        RAX:8          <RETURN>
                             FUN_140001b40                                   XREF[7]:     FUN_140001454:140001470 (c) , 
                                                                                          FUN_140001454:1400014bb (*) , 
                                                                                          FUN_140001454:1400014d1 (c) , 
                                                                                          FUN_140001454:1400014eb (c) , 
                                                                                          140001525 (c) , 
                                                                                          thunk_FUN_140001b40:140001cf8 (T
                                                                                          thunk_FUN_140001b40:140001cf8 (j
                                                                                          14000513c (*)   
       140001b40 33  c0           XOR        EAX ,EAX
       140001b42 c3              RET
       140001b43 cc              ??         CCh
                             *************************************************************
                             *                           FUNCTION                          
                             *************************************************************
                             undefined8  __fastcall  FUN_140001b44 (void )
                               assume GS_OFFSET = 0xff00000000
             undefined8        RAX:8          <RETURN>
                             FUN_140001b44                                   XREF[1]:     FUN_140001454:14000149d (c)   
       140001b44 b8  01  00       MOV        EAX ,0x1
                 00  00
       140001b49 c3              RET
       140001b4a cc              ??         CCh
       140001b4b cc              ??         CCh
                             *************************************************************
                             *                           FUNCTION                          
                             *************************************************************
                             undefined8  __fastcall  FUN_140001b4c (void )
                               assume GS_OFFSET = 0xff00000000
             undefined8        RAX:8          <RETURN>
                             FUN_140001b4c                                   XREF[1]:     FUN_140001454:140001464 (c)   
       140001b4c b8  00  40       MOV        EAX ,0x4000
                 00  00
       140001b51 c3              RET
       140001b52 cc              ??         CCh
       140001b53 cc              ??         CCh
                             *************************************************************
                             *                           FUNCTION                          
                             *************************************************************
                             undefined  __fastcall  FUN_140001b54 (void )
                               assume GS_OFFSET = 0xff00000000
             undefined         AL:1           <RETURN>
                             FUN_140001b54                                   XREF[1]:     FUN_140001454:1400014ad (c)   
       140001b54 48  8d  0d       LEA        RCX ,[DAT_140004730 ]                             = ??
                 d5  2b  00  00
       140001b5b 48  ff  25       JMP        qword ptr [->KERNEL32.DLL::InitializeSListHead ]
                 de  14  00  00
       140001b62 cc              ??         CCh
       140001b63 cc              ??         CCh
                             *************************************************************
                             *                           FUNCTION                          
                             *************************************************************
                             undefined  __fastcall  FUN_140001b64 (void )
                               assume GS_OFFSET = 0xff00000000
             undefined         AL:1           <RETURN>
                             FUN_140001b64                                   XREF[6]:     FUN_140001454:1400014dd (c) , 
                                                                                          __scrt_initialize_crt:1400018a2
                                                                                          __scrt_initialize_crt:1400018af
                                                                                          __scrt_initialize_crt:1400018ba
                                                                                          __scrt_uninitialize_crt:140001a2
                                                                                          __scrt_uninitialize_crt:140001a3
       140001b64 b0  01           MOV        AL,0x1
       140001b66 c3              RET
       140001b67 cc              ??         CCh
                             *************************************************************
                             *                           FUNCTION                          
                             *************************************************************
                             undefined  __fastcall  _guard_check_icall (void )
                               assume GS_OFFSET = 0xff00000000
             undefined         AL:1           <RETURN>
                             _guard_check_icall                              XREF[3]:     FUN_140001454:1400014c7 (c) , 
                                                                                          FUN_140001454:1400014cc (c) , 
                                                                                          1400031c0 (*)   
       140001b68 c2  00  00       RET        0x0
       140001b6b cc              ??         CCh
                             *************************************************************
                             *                           FUNCTION                          
                             *************************************************************
                             undefined  __fastcall  FUN_140001b6c (void )
                               assume GS_OFFSET = 0xff00000000
             undefined         AL:1           <RETURN>
                             FUN_140001b6c                                   XREF[2]:     FUN_14000150c:140001510 (c) , 
                                                                                          140005144 (*)   
       140001b6c 48  83  ec  28    SUB        RSP ,0x28
       140001b70 e8  1b  f6       CALL       FUN_140001190                                    undefined * FUN_140001190(void)
                 ff  ff
       140001b75 48  83  08  24    OR         qword ptr [RAX ],0x24
       140001b79 e8  22  f6       CALL       FUN_1400011a0                                    undefined * FUN_1400011a0(void)
                 ff  ff
       140001b7e 48  83  08  02    OR         qword ptr [RAX ],0x2
       140001b82 48  83  c4  28    ADD        RSP ,0x28
       140001b86 c3              RET
                             LAB_140001b87                                   XREF[1]:     140005148 (*)   
       140001b87 cc              INT3
                             *************************************************************
                             *                           FUNCTION                          
                             *************************************************************
                             bool  __fastcall  FUN_140001b88 (void )
                               assume GS_OFFSET = 0xff00000000
             bool              AL:1           <RETURN>
                             FUN_140001b88                                   XREF[1]:     FUN_140001454:1400014b2 (c)   
       140001b88 33  c0           XOR        EAX ,EAX
       140001b8a 39  05  a4       CMP        dword ptr [DAT_140004134 ],EAX                   = 01h
                 25  00  00
       140001b90 0f  94  c0       SETZ       AL
       140001b93 c3              RET
                             *************************************************************
                             *                           FUNCTION                          
                             *************************************************************
                             undefined *  __fastcall  FUN_140001b94 (void )
                               assume GS_OFFSET = 0xff00000000
             undefined *       RAX:8          <RETURN>
                             FUN_140001b94                                   XREF[1]:     FUN_140001538:1400015d4 (c)   
       140001b94 48  8d  05       LEA        RAX ,[DAT_140004750 ]                             = ??
                 b5  2b  00  00
       140001b9b c3              RET
                             *************************************************************
                             *                           FUNCTION                          
                             *************************************************************
                             undefined *  __fastcall  FUN_140001b9c (void )
                               assume GS_OFFSET = 0xff00000000
             undefined *       RAX:8          <RETURN>
                             FUN_140001b9c                                   XREF[1]:     FUN_140001538:140001600 (c)   
       140001b9c 48  8d  05       LEA        RAX ,[DAT_140004748 ]                             = ??
                 a5  2b  00  00
       140001ba3 c3              RET
                             *************************************************************
                             *                           FUNCTION                          
                             *************************************************************
                             undefined  __fastcall  FUN_140001ba4 (void )
                               assume GS_OFFSET = 0xff00000000
             undefined         AL:1           <RETURN>
                             FUN_140001ba4                                   XREF[2]:     __scrt_fastfail:140001bda (c) , 
                                                                                          __scrt_fastfail:140001ce0 (c)   
       140001ba4 83  25  95       AND        dword ptr [DAT_140004740 ],0x0                   = ??
                 2b  00  00  00
       140001bab c3              RET
                             *************************************************************
                             * Library Function - Single Match                            
                             *  __scrt_fastfail                                           
                             *                                                            
                             * Library: Visual Studio 2019 Release                        *
                             *************************************************************
                             undefined  __fastcall  __scrt_fastfail (undefined4  param_1 )
                               assume GS_OFFSET = 0xff00000000
             undefined         AL:1           <RETURN>
             undefined4        ECX:4          param_1
             undefined1        Stack[0x20]:1  local_res20                             XREF[1]:     140001c38 (*)   
             undefined1        Stack[0x18]:1  local_res18                             XREF[1]:     140001c1f (*)   
             undefined8        Stack[0x10]:8  local_res10                             XREF[3]:     140001c01 (*) , 
                                                                                                   140001c26 (*) , 
                                                                                                   140001ce5 (R)   
             undefined8        Stack[0x8]:8   local_res8                              XREF[1]:     140001bac (W)   
             undefined8        Stack[0x0]:8   local_res0                              XREF[3]:     140001c55 (R) , 
                                                                                                   140001c6a (*) , 
                                                                                                   140001c87 (R)   
             undefined8        Stack[-0x3e0   local_3e0                               XREF[2]:     140001bfa (R) , 
                                                                                                   140001c61 (W)   
             undefined8        Stack[-0x440   local_440                               XREF[1]:     140001c7b (W)   
             undefined1        Stack[-0x4c8   local_4c8                               XREF[1]:     140001bb2 (*)   
             undefined1        Stack[-0x4d8   local_4d8                               XREF[4]:     140001be1 (*) , 
                                                                                                   140001bf0 (*) , 
                                                                                                   140001c44 (*) , 
                                                                                                   140001cb6 (*)   
             undefined8        Stack[-0x560   local_560                               XREF[1]:     140001c8e (W)   
             undefined4        Stack[-0x56c   local_56c                               XREF[1]:     140001c9b (W)   
             undefined4        Stack[-0x570   local_570                               XREF[3]:     140001c5c (*) , 
                                                                                                   140001c93 (W) , 
                                                                                                   140001cac (*)   
             undefined8        Stack[-0x578   local_578                               XREF[1]:     140001cbd (W)   
             undefined8        Stack[-0x580   local_580                               XREF[2]:     140001cb1 (W) , 
                                                                                                   140001cca (*)   
             undefined8        Stack[-0x588   local_588                               XREF[1]:     140001c19 (RW)  
             undefined8        Stack[-0x590   local_590                               XREF[1]:     140001c30 (W)   
             undefined8        Stack[-0x598   local_598                               XREF[1]:     140001c3f (W)   
             undefined8        Stack[-0x5a0   local_5a0                               XREF[1]:     140001c48 (W)   
                             __scrt_fastfail                                 XREF[5]:     FUN_140001454:140001504 (c) , 
                                                                                          FUN_140001538:140001694 (c) , 
                                                                                          FUN_140001538:14000169f (c) , 
                                                                                          __scrt_initialize_onexit_tables:
                                                                                          140005150 (*)   
       140001bac 48  89  5c       MOV        qword ptr [RSP  + local_res8 ],RBX
                 24  08
       140001bb1 55              PUSH       RBP
       140001bb2 48  8d  ac       LEA        RBP =>local_4c8 ,[RSP  + -0x4c0 ]
                 24  40  fb 
                 ff  ff
       140001bba 48  81  ec       SUB        RSP ,0x5c0
                 c0  05  00  00
       140001bc1 8b  d9           MOV        EBX ,param_1
       140001bc3 b9  17  00       MOV        param_1 ,0x17
                 00  00
       140001bc8 e8  d1  04       CALL       KERNEL32.DLL::IsProcessorFeaturePresent          BOOL IsProcessorFeaturePresent(D
                 00  00
       140001bcd 85  c0           TEST       EAX ,EAX
       140001bcf 74  04           JZ         LAB_140001bd5
       140001bd1 8b  cb           MOV        param_1 ,EBX
       140001bd3 cd  29           INT        0x29
                             LAB_140001bd5                                   XREF[1]:     140001bcf (j)   
       140001bd5 b9  03  00       MOV        param_1 ,0x3
                 00  00
       140001bda e8  c5  ff       CALL       FUN_140001ba4                                    undefined FUN_140001ba4(void)
                 ff  ff
       140001bdf 33  d2           XOR        EDX ,EDX
       140001be1 48  8d  4d  f0    LEA        param_1 =>local_4d8 ,[RBP  + -0x10 ]
       140001be5 41  b8  d0       MOV        R8D ,0x4d0
                 04  00  00
       140001beb e8  18  04       CALL       VCRUNTIME140.DLL::memset                         void * memset(void * _Dst, int _
                 00  00
       140001bf0 48  8d  4d  f0    LEA        param_1 =>local_4d8 ,[RBP  + -0x10 ]
       140001bf4 ff  15  56       CALL       qword ptr [->KERNEL32.DLL::RtlCaptureContext ]   = 00003dc2
                 14  00  00
       140001bfa 48  8b  9d       MOV        RBX ,qword ptr [RBP  + local_3e0 ]
                 e8  00  00  00
       140001c01 48  8d  95       LEA        RDX =>local_res10 ,[RBP  + 0x4d8 ]
                 d8  04  00  00
       140001c08 48  8b  cb       MOV        param_1 ,RBX
       140001c0b 45  33  c0       XOR        R8D ,R8D
       140001c0e ff  15  f4       CALL       qword ptr [->KERNEL32.DLL::RtlLookupFunctionEn   = 00003dd6
                 13  00  00
       140001c14 48  85  c0       TEST       RAX ,RAX
       140001c17 74  3c           JZ         LAB_140001c55
       140001c19 48  83  64       AND        qword ptr [RSP  + local_588 ],0x0
                 24  38  00
       140001c1f 48  8d  8d       LEA        param_1 =>local_res18 ,[RBP  + 0x4e0 ]
                 e0  04  00  00
       140001c26 48  8b  95       MOV        RDX =>local_res10 ,qword ptr [RBP  + 0x4d8 ]
                 d8  04  00  00
       140001c2d 4c  8b  c8       MOV        R9,RAX
       140001c30 48  89  4c       MOV        qword ptr [RSP  + local_590 ],param_1
                 24  30
       140001c35 4c  8b  c3       MOV        R8,RBX
       140001c38 48  8d  8d       LEA        param_1 =>local_res20 ,[RBP  + 0x4e8 ]
                 e8  04  00  00
       140001c3f 48  89  4c       MOV        qword ptr [RSP  + local_598 ],param_1
                 24  28
       140001c44 48  8d  4d  f0    LEA        param_1 =>local_4d8 ,[RBP  + -0x10 ]
       140001c48 48  89  4c       MOV        qword ptr [RSP  + local_5a0 ],param_1
                 24  20
       140001c4d 33  c9           XOR        param_1 ,param_1
       140001c4f ff  15  bb       CALL       qword ptr [->KERNEL32.DLL::RtlVirtualUnwind ]    = 00003df0
                 13  00  00
                             LAB_140001c55                                   XREF[1]:     140001c17 (j)   
       140001c55 48  8b  85       MOV        RAX ,qword ptr [RBP  + local_res0 ]
                 c8  04  00  00
       140001c5c 48  8d  4c       LEA        param_1 =>local_570 ,[RSP  + 0x50 ]
                 24  50
       140001c61 48  89  85       MOV        qword ptr [RBP  + local_3e0 ],RAX
                 e8  00  00  00
       140001c68 33  d2           XOR        EDX ,EDX
       140001c6a 48  8d  85       LEA        RAX =>local_res0 ,[RBP  + 0x4c8 ]
                 c8  04  00  00
       140001c71 41  b8  98       MOV        R8D ,0x98
                 00  00  00
       140001c77 48  83  c0  08    ADD        RAX ,0x8
       140001c7b 48  89  85       MOV        qword ptr [RBP  + local_440 ],RAX
                 88  00  00  00
       140001c82 e8  81  03       CALL       VCRUNTIME140.DLL::memset                         void * memset(void * _Dst, int _
                 00  00
       140001c87 48  8b  85       MOV        RAX ,qword ptr [RBP  + local_res0 ]
                 c8  04  00  00
       140001c8e 48  89  44       MOV        qword ptr [RSP  + local_560 ],RAX
                 24  60
       140001c93 c7  44  24       MOV        dword ptr [RSP  + local_570 ],0x40000015
                 50  15  00 
                 00  40
       140001c9b c7  44  24       MOV        dword ptr [RSP  + local_56c ],0x1
                 54  01  00 
                 00  00
       140001ca3 ff  15  8f       CALL       qword ptr [->KERNEL32.DLL::IsDebuggerPresent ]   = 00003ef8
                 13  00  00
       140001ca9 83  f8  01       CMP        EAX ,0x1
       140001cac 48  8d  44       LEA        RAX =>local_570 ,[RSP  + 0x50 ]
                 24  50
       140001cb1 48  89  44       MOV        qword ptr [RSP  + local_580 ],RAX
                 24  40
       140001cb6 48  8d  45  f0    LEA        RAX =>local_4d8 ,[RBP  + -0x10 ]
       140001cba 0f  94  c3       SETZ       BL
       140001cbd 48  89  44       MOV        qword ptr [RSP  + local_578 ],RAX
                 24  48
       140001cc2 33  c9           XOR        param_1 ,param_1
       140001cc4 ff  15  56       CALL       qword ptr [->KERNEL32.DLL::SetUnhandledExcepti   = 00003e20
                 13  00  00
       140001cca 48  8d  4c       LEA        param_1 =>local_580 ,[RSP  + 0x40 ]
                 24  40
       140001ccf ff  15  43       CALL       qword ptr [->KERNEL32.DLL::UnhandledExceptionF   = 00003e04
                 13  00  00
       140001cd5 85  c0           TEST       EAX ,EAX
       140001cd7 75  0c           JNZ        LAB_140001ce5
       140001cd9 84  db           TEST       BL,BL
       140001cdb 75  08           JNZ        LAB_140001ce5
       140001cdd 8d  48  03       LEA        param_1 ,[RAX  + 0x3 ]
       140001ce0 e8  bf  fe       CALL       FUN_140001ba4                                    undefined FUN_140001ba4(void)
                 ff  ff
                             LAB_140001ce5                                   XREF[2]:     140001cd7 (j) , 140001cdb (j)   
       140001ce5 48  8b  9c       MOV        RBX ,qword ptr [RSP  + local_res10 ]
                 24  d0  05 
                 00  00
       140001ced 48  81  c4       ADD        RSP ,0x5c0
                 c0  05  00  00
       140001cf4 5d              POP        RBP
       140001cf5 c3              RET
                             LAB_140001cf6                                   XREF[1]:     140005154 (*)   
       140001cf6 cc              INT3
       140001cf7 cc              ??         CCh
                             *************************************************************
                             *                        THUNK FUNCTION                       
                             *************************************************************
                             thunk  undefined8  __fastcall  thunk_FUN_140001b40 (void )
                               Thunked-Function:  FUN_140001b40
                               assume GS_OFFSET = 0xff00000000
             undefined8        RAX:8          <RETURN>
                             thunk_FUN_140001b40                             XREF[1]:     FUN_140001454:1400014f0 (c)   
       140001cf8 e9  43  fe       JMP        FUN_140001b40
                 ff  ff
       140001cfd cc              ??         CCh
       140001cfe cc              ??         CCh
       140001cff cc              ??         CCh
                             *************************************************************
                             * Library Function - Single Match                            
                             *  __scrt_is_managed_app                                     
                             *                                                            
                             * Libraries: Visual Studio 2017 Release, Visual Studio 20  ..
                             *************************************************************
                             ulonglong  __fastcall  __scrt_is_managed_app (void )
                               assume GS_OFFSET = 0xff00000000
             ulonglong         RAX:8          <RETURN>
                             __scrt_is_managed_app                           XREF[2]:     FUN_140001538:140001646 (c) , 
                                                                                          14000515c (*)   
       140001d00 48  83  ec  28    SUB        RSP ,0x28
       140001d04 33  c9           XOR        ECX ,ECX
       140001d06 ff  15  24       CALL       qword ptr [->KERNEL32.DLL::GetModuleHandleW ]    = 00003f0c
                 13  00  00
       140001d0c 48  85  c0       TEST       RAX ,RAX
       140001d0f 74  3a           JZ         LAB_140001d4b
       140001d11 b9  4d  5a       MOV        ECX ,0x5a4d
                 00  00
       140001d16 66  39  08       CMP        word ptr [RAX ],CX
       140001d19 75  30           JNZ        LAB_140001d4b
       140001d1b 48  63  48  3c    MOVSXD     RCX ,dword ptr [RAX  + 0x3c ]
       140001d1f 48  03  c8       ADD        RCX ,RAX
       140001d22 81  39  50       CMP        dword ptr [RCX ],0x4550
                 45  00  00
       140001d28 75  21           JNZ        LAB_140001d4b
       140001d2a b8  0b  02       MOV        EAX ,0x20b
                 00  00
       140001d2f 66  39  41  18    CMP        word ptr [RCX  + 0x18 ],AX
       140001d33 75  16           JNZ        LAB_140001d4b
       140001d35 83  b9  84       CMP        dword ptr [RCX  + 0x84 ],0xe
                 00  00  00  0e
       140001d3c 76  0d           JBE        LAB_140001d4b
       140001d3e 83  b9  f8       CMP        dword ptr [RCX  + 0xf8 ],0x0
                 00  00  00  00
       140001d45 74  04           JZ         LAB_140001d4b
       140001d47 b0  01           MOV        AL,0x1
       140001d49 eb  02           JMP        LAB_140001d4d
                             LAB_140001d4b                                   XREF[6]:     140001d0f (j) , 140001d19 (j) , 
                                                                                          140001d28 (j) , 140001d33 (j) , 
                                                                                          140001d3c (j) , 140001d45 (j)   
       140001d4b 32  c0           XOR        AL,AL
                             LAB_140001d4d                                   XREF[1]:     140001d49 (j)   
       140001d4d 48  83  c4  28    ADD        RSP ,0x28
       140001d51 c3              RET
                             LAB_140001d52                                   XREF[1]:     140005160 (*)   
       140001d52 cc              INT3
       140001d53 cc              ??         CCh
                             *************************************************************
                             *                           FUNCTION                          
                             *************************************************************
                             undefined  __fastcall  FUN_140001d54 (void )
                               assume GS_OFFSET = 0xff00000000
             undefined         AL:1           <RETURN>
                             FUN_140001d54                                   XREF[1]:     140001520 (c)   
       140001d54 48  8d  0d       LEA        RCX ,[LAB_140001d64 ]
                 09  00  00  00
       140001d5b 48  ff  25       JMP        qword ptr [->KERNEL32.DLL::SetUnhandledExcepti
                 be  12  00  00
       140001d62 cc              ??         CCh
       140001d63 cc              ??         CCh
                             LAB_140001d64                                   XREF[2]:     FUN_140001d54:140001d54 (*) , 
                                                                                          140005168 (*)   
       140001d64 48  89  5c       MOV        qword ptr [RSP  + 0x8 ],RBX
                 24  08
       140001d69 57              PUSH       RDI
       140001d6a 48  83  ec  20    SUB        RSP ,0x20
       140001d6e 48  8b  19       MOV        RBX ,qword ptr [RCX ]
       140001d71 48  8b  f9       MOV        RDI ,RCX
       140001d74 81  3b  63       CMP        dword ptr [RBX ],0xe06d7363
                 73  6d  e0
       140001d7a 75  1c           JNZ        LAB_140001d98
       140001d7c 83  7b  18  04    CMP        dword ptr [RBX  + 0x18 ],0x4
       140001d80 75  16           JNZ        LAB_140001d98
       140001d82 8b  53  20       MOV        EDX ,dword ptr [RBX  + 0x20 ]
       140001d85 8d  82  e0       LEA        EAX ,[RDX  + -0x19930520 ]
                 fa  6c  e6
       140001d8b 83  f8  02       CMP        EAX ,0x2
       140001d8e 76  15           JBE        LAB_140001da5
       140001d90 81  fa  00       CMP        EDX ,0x1994000
                 40  99  01
       140001d96 74  0d           JZ         LAB_140001da5
                             LAB_140001d98                                   XREF[2]:     140001d7a (j) , 140001d80 (j)   
       140001d98 48  8b  5c       MOV        RBX ,qword ptr [RSP  + 0x30 ]
                 24  30
       140001d9d 33  c0           XOR        EAX ,EAX
       140001d9f 48  83  c4  20    ADD        RSP ,0x20
       140001da3 5f              POP        RDI
       140001da4 c3              RET
                             LAB_140001da5                                   XREF[2]:     140001d8e (j) , 140001d96 (j)   
       140001da5 e8  52  02       CALL       VCRUNTIME140.DLL::__current_exception            undefined __current_exception()
                 00  00
       140001daa 48  89  18       MOV        qword ptr [RAX ],RBX
       140001dad 48  8b  5f  08    MOV        RBX ,qword ptr [RDI  + 0x8 ]
       140001db1 e8  4c  02       CALL       VCRUNTIME140.DLL::__current_exception_context    undefined __current_exception_co
                 00  00
       140001db6 48  89  18       MOV        qword ptr [RAX ],RBX
       140001db9 e8  da  02       CALL       API-MS-WIN-CRT-RUNTIME-L1-1-0.DLL::terminate     undefined terminate()
                 00  00
                             -- Flow Override: CALL_RETURN (CALL_TERMINATOR)
             assume GS_OFFSET = <UNKNOWN>
       140001dbe cc              ??         CCh
             assume GS_OFFSET = 0xff00000000
                             LAB_140001dbf                                   XREF[1]:     14000516c (*)   
       140001dbf cc              INT3
                             *************************************************************
                             *                           FUNCTION                          
                             *************************************************************
                             undefined  __fastcall  FUN_140001dc0 (void )
                               assume GS_OFFSET = 0xff00000000
             undefined         AL:1           <RETURN>
             undefined8        Stack[0x8]:8   local_res8                              XREF[2]:     140001dc0 (W) , 
                                                                                                   140001df1 (R)   
                             FUN_140001dc0                                   XREF[2]:     FUN_140001454:14000148c (c) , 
                                                                                          140005174 (*)   
       140001dc0 48  89  5c       MOV        qword ptr [RSP  + local_res8 ],RBX
                 24  08
       140001dc5 57              PUSH       RDI
       140001dc6 48  83  ec  20    SUB        RSP ,0x20
       140001dca 48  8d  1d       LEA        RBX ,[DAT_1400036f0 ]
                 1f  19  00  00
       140001dd1 48  8d  3d       LEA        RDI ,[DAT_1400036f0 ]
                 18  19  00  00
       140001dd8 eb  12           JMP        LAB_140001dec
                             LAB_140001dda                                   XREF[1]:     140001def (j)   
       140001dda 48  8b  03       MOV        RAX ,qword ptr [RBX ]=>DAT_1400036f0
       140001ddd 48  85  c0       TEST       RAX ,RAX
       140001de0 74  06           JZ         LAB_140001de8
       140001de2 ff  15  e0       CALL       qword ptr [->_guard_dispatch_icall ]             undefined _guard_dispatch_icall(
                 13  00  00                                                                   = 1400020c0
                             LAB_140001de8                                   XREF[1]:     140001de0 (j)   
       140001de8 48  83  c3  08    ADD        RBX ,0x8
                             LAB_140001dec                                   XREF[1]:     140001dd8 (j)   
       140001dec 48  3b  df       CMP        RBX ,RDI
       140001def 72  e9           JC         LAB_140001dda
       140001df1 48  8b  5c       MOV        RBX ,qword ptr [RSP  + local_res8 ]
                 24  30
       140001df6 48  83  c4  20    ADD        RSP ,0x20
       140001dfa 5f              POP        RDI
       140001dfb c3              RET
                             LAB_140001dfc                                   XREF[3]:     FUN_140001454:140001491 (*) , 
                                                                                          140005178 (*) , 140005180 (*)   
       140001dfc 48  89  5c       MOV        qword ptr [RSP  + 0x8 ],RBX
                 24  08
       140001e01 57              PUSH       RDI
       140001e02 48  83  ec  20    SUB        RSP ,0x20
       140001e06 48  8d  1d       LEA        RBX ,[DAT_140003700 ]
                 f3  18  00  00
       140001e0d 48  8d  3d       LEA        RDI ,[DAT_140003700 ]
                 ec  18  00  00
       140001e14 eb  12           JMP        LAB_140001e28
                             LAB_140001e16                                   XREF[1]:     140001e2b (j)   
       140001e16 48  8b  03       MOV        RAX ,qword ptr [RBX ]=>DAT_140003700
       140001e19 48  85  c0       TEST       RAX ,RAX
       140001e1c 74  06           JZ         LAB_140001e24
       140001e1e ff  15  a4       CALL       qword ptr [->_guard_dispatch_icall ]             undefined _guard_dispatch_icall(
                 13  00  00                                                                   = 1400020c0
                             LAB_140001e24                                   XREF[1]:     140001e1c (j)   
       140001e24 48  83  c3  08    ADD        RBX ,0x8
                             LAB_140001e28                                   XREF[1]:     140001e14 (j)   
       140001e28 48  3b  df       CMP        RBX ,RDI
       140001e2b 72  e9           JC         LAB_140001e16
       140001e2d 48  8b  5c       MOV        RBX ,qword ptr [RSP  + 0x30 ]
                 24  30
       140001e32 48  83  c4  20    ADD        RSP ,0x20
       140001e36 5f              POP        RDI
       140001e37 c3              RET
                             *************************************************************
                             * Library Function - Single Match                            
                             *  __isa_available_init                                      
                             *                                                            
                             * Library: Visual Studio 2019 Release                        *
                             *************************************************************
                             undefined8  __fastcall  __isa_available_init (void )
                               assume GS_OFFSET = 0xff00000000
             undefined8        RAX:8          <RETURN>
             undefined8        Stack[0x18]:8  local_res18                             XREF[2]:     140001e3d (W) , 
                                                                                                   140001fce (R)   
             undefined8        Stack[0x10]:8  local_res10                             XREF[2]:     140001e38 (W) , 
                                                                                                   140001fc7 (R)   
             undefined8        Stack[0x8]:8   local_res8                              XREF[3]:     140001f60 (W) , 
                                                                                                   140001f65 (R) , 
                                                                                                   140001faf (R)   
             undefined4        Stack[-0xc]:4  local_c                                 XREF[2]:     140001e8b (W) , 
                                                                                                   140001f07 (W)   
             undefined4        Stack[-0x10]:4 local_10                                XREF[2]:     140001e87 (W) , 
                                                                                                   140001f03 (W)   
             undefined4        Stack[-0x14]:4 local_14                                XREF[2]:     140001e81 (W) , 
                                                                                                   140001eff (W)   
             undefined4        Stack[-0x18]:4 local_18                                XREF[2]:     140001e7b (*) , 
                                                                                                   140001ef9 (*)   
                             __isa_available_init                            XREF[3]:     __scrt_initialize_crt:14000189d
                                                                                          140005184 (*) , 14000518c (*)   
       140001e38 48  89  5c       MOV        qword ptr [RSP  + local_res10 ],RBX
                 24  10
       140001e3d 48  89  74       MOV        qword ptr [RSP  + local_res18 ],RSI
                 24  18
       140001e42 57              PUSH       RDI
       140001e43 48  83  ec  10    SUB        RSP ,0x10
       140001e47 33  c0           XOR        EAX ,EAX
       140001e49 33  c9           XOR        ECX ,ECX
       140001e4b 0f  a2           CPUID
       140001e4d 44  8b  c1       MOV        R8D ,ECX
       140001e50 45  33  db       XOR        R11D ,R11D
       140001e53 44  8b  cb       MOV        R9D ,EBX
       140001e56 41  81  f0       XOR        R8D ,0x6c65746e
                 6e  74  65  6c
       140001e5d 41  81  f1       XOR        R9D ,0x756e6547
                 47  65  6e  75
       140001e64 44  8b  d2       MOV        R10D ,EDX
       140001e67 8b  f0           MOV        ESI ,EAX
       140001e69 33  c9           XOR        ECX ,ECX
       140001e6b 41  8d  43  01    LEA        EAX ,[R11  + 0x1 ]
       140001e6f 45  0b  c8       OR         R9D ,R8D
       140001e72 0f  a2           CPUID
       140001e74 41  81  f2       XOR        R10D ,0x49656e69
                 69  6e  65  49
       140001e7b 89  04  24       MOV        dword ptr [RSP ]=>local_18 ,EAX
       140001e7e 45  0b  ca       OR         R9D ,R10D
       140001e81 89  5c  24  04    MOV        dword ptr [RSP  + local_14 ],EBX
       140001e85 8b  f9           MOV        EDI ,ECX
       140001e87 89  4c  24  08    MOV        dword ptr [RSP  + local_10 ],ECX
       140001e8b 89  54  24  0c    MOV        dword ptr [RSP  + local_c ],EDX
       140001e8f 75  50           JNZ        LAB_140001ee1
       140001e91 48  83  0d       OR         qword ptr [DAT_140004140 ],-0x1                  = 2Fh    /
                 a7  22  00 
                 00  ff
       140001e99 25  f0  3f       AND        EAX ,0xfff3ff0
                 ff  0f
       140001e9e 3d  c0  06       CMP        EAX ,0x106c0
                 01  00
       140001ea3 74  28           JZ         LAB_140001ecd
       140001ea5 3d  60  06       CMP        EAX ,0x20660
                 02  00
       140001eaa 74  21           JZ         LAB_140001ecd
       140001eac 3d  70  06       CMP        EAX ,0x20670
                 02  00
       140001eb1 74  1a           JZ         LAB_140001ecd
       140001eb3 05  b0  f9       ADD        EAX ,0xfffcf9b0
                 fc  ff
       140001eb8 83  f8  20       CMP        EAX ,0x20
       140001ebb 77  24           JA         LAB_140001ee1
       140001ebd 48  b9  01       MOV        RCX ,0x100010001
                 00  01  00 
                 01  00  00  00
       140001ec7 48  0f  a3  c1    BT         RCX ,RAX
       140001ecb 73  14           JNC        LAB_140001ee1
                             LAB_140001ecd                                   XREF[3]:     140001ea3 (j) , 140001eaa (j) , 
                                                                                          140001eb1 (j)   
       140001ecd 44  8b  05       MOV        R8D ,dword ptr [DAT_140004744 ]                   = ??
                 70  28  00  00
       140001ed4 41  83  c8  01    OR         R8D ,0x1
       140001ed8 44  89  05       MOV        dword ptr [DAT_140004744 ],R8D                   = ??
                 65  28  00  00
       140001edf eb  07           JMP        LAB_140001ee8
                             LAB_140001ee1                                   XREF[3]:     140001e8f (j) , 140001ebb (j) , 
                                                                                          140001ecb (j)   
       140001ee1 44  8b  05       MOV        R8D ,dword ptr [DAT_140004744 ]                   = ??
                 5c  28  00  00
                             LAB_140001ee8                                   XREF[1]:     140001edf (j)   
       140001ee8 b8  07  00       MOV        EAX ,0x7
                 00  00
       140001eed 44  8d  48  fb    LEA        R9D ,[RAX  + -0x5 ]
       140001ef1 3b  f0           CMP        ESI ,EAX
       140001ef3 7c  26           JL         LAB_140001f1b
       140001ef5 33  c9           XOR        ECX ,ECX
       140001ef7 0f  a2           CPUID
       140001ef9 89  04  24       MOV        dword ptr [RSP ]=>local_18 ,EAX
       140001efc 44  8b  db       MOV        R11D ,EBX
       140001eff 89  5c  24  04    MOV        dword ptr [RSP  + local_14 ],EBX
       140001f03 89  4c  24  08    MOV        dword ptr [RSP  + local_10 ],ECX
       140001f07 89  54  24  0c    MOV        dword ptr [RSP  + local_c ],EDX
       140001f0b 0f  ba  e3  09    BT         EBX ,0x9
       140001f0f 73  0a           JNC        LAB_140001f1b
       140001f11 45  0b  c1       OR         R8D ,R9D
       140001f14 44  89  05       MOV        dword ptr [DAT_140004744 ],R8D                   = ??
                 29  28  00  00
                             LAB_140001f1b                                   XREF[2]:     140001ef3 (j) , 140001f0f (j)   
       140001f1b c7  05  13       MOV        dword ptr [DAT_140004138 ],0x1                   = 01h
                 22  00  00 
                 01  00  00  00
       140001f25 44  89  0d       MOV        dword ptr [DAT_14000413c ],R9D                   = 00000002h
                 10  22  00  00
       140001f2c 0f  ba  e7  14    BT         EDI ,0x14
       140001f30 0f  83  91       JNC        LAB_140001fc7
                 00  00  00
       140001f36 44  89  0d       MOV        dword ptr [DAT_140004138 ],R9D                   = 01h
                 fb  21  00  00
       140001f3d bb  06  00       MOV        EBX ,0x6
                 00  00
       140001f42 89  1d  f4       MOV        dword ptr [DAT_14000413c ],EBX                   = 00000002h
                 21  00  00
       140001f48 0f  ba  e7  1b    BT         EDI ,0x1b
       140001f4c 73  79           JNC        LAB_140001fc7
       140001f4e 0f  ba  e7  1c    BT         EDI ,0x1c
       140001f52 73  73           JNC        LAB_140001fc7
       140001f54 33  c9           XOR        ECX ,ECX
       140001f56 0f  01  d0       XGETBV
       140001f59 48  c1  e2  20    SHL        RDX ,0x20
       140001f5d 48  0b  d0       OR         RDX ,RAX
       140001f60 48  89  54       MOV        qword ptr [RSP  + local_res8 ],RDX
                 24  20
       140001f65 48  8b  44       MOV        RAX ,qword ptr [RSP  + local_res8 ]
                 24  20
       140001f6a 22  c3           AND        AL,BL
       140001f6c 3a  c3           CMP        AL,BL
       140001f6e 75  57           JNZ        LAB_140001fc7
       140001f70 8b  05  c6       MOV        EAX ,dword ptr [DAT_14000413c ]                   = 00000002h
                 21  00  00
       140001f76 83  c8  08       OR         EAX ,0x8
       140001f79 c7  05  b5       MOV        dword ptr [DAT_140004138 ],0x3                   = 01h
                 21  00  00 
                 03  00  00  00
       140001f83 89  05  b3       MOV        dword ptr [DAT_14000413c ],EAX                   = 00000002h
                 21  00  00
       140001f89 41  f6  c3  20    TEST       R11B ,0x20
       140001f8d 74  38           JZ         LAB_140001fc7
       140001f8f 83  c8  20       OR         EAX ,0x20
       140001f92 c7  05  9c       MOV        dword ptr [DAT_140004138 ],0x5                   = 01h
                 21  00  00 
                 05  00  00  00
       140001f9c 89  05  9a       MOV        dword ptr [DAT_14000413c ],EAX                   = 00000002h
                 21  00  00
       140001fa2 b8  00  00       MOV        EAX ,0xd0030000
                 03  d0
       140001fa7 44  23  d8       AND        R11D ,EAX
       140001faa 44  3b  d8       CMP        R11D ,EAX
       140001fad 75  18           JNZ        LAB_140001fc7
       140001faf 48  8b  44       MOV        RAX ,qword ptr [RSP  + local_res8 ]
                 24  20
       140001fb4 24  e0           AND        AL,0xe0
       140001fb6 3c  e0           CMP        AL,0xe0
       140001fb8 75  0d           JNZ        LAB_140001fc7
       140001fba 83  0d  7b       OR         dword ptr [DAT_14000413c ],0x40                  = 00000002h
                 21  00  00  40
       140001fc1 89  1d  71       MOV        dword ptr [DAT_140004138 ],EBX                   = 01h
                 21  00  00
                             LAB_140001fc7                                   XREF[7]:     140001f30 (j) , 140001f4c (j) , 
                                                                                          140001f52 (j) , 140001f6e (j) , 
                                                                                          140001f8d (j) , 140001fad (j) , 
                                                                                          140001fb8 (j)   
       140001fc7 48  8b  5c       MOV        RBX ,qword ptr [RSP  + local_res10 ]
                 24  28
       140001fcc 33  c0           XOR        EAX ,EAX
       140001fce 48  8b  74       MOV        RSI ,qword ptr [RSP  + local_res18 ]
                 24  30
       140001fd3 48  83  c4  10    ADD        RSP ,0x10
       140001fd7 5f              POP        RDI
       140001fd8 c3              RET
                             LAB_140001fd9                                   XREF[1]:     140005190 (*)   
       140001fd9 cc              INT3
       140001fda cc              ??         CCh
       140001fdb cc              ??         CCh
                             *************************************************************
                             * Library Function - Single Match                            
                             *  __scrt_is_ucrt_dll_in_use                                 
                             *                                                            
                             * Library: Visual Studio 2019 Release                        *
                             *************************************************************
                             bool  __fastcall  __scrt_is_ucrt_dll_in_use (void )
                               assume GS_OFFSET = 0xff00000000
             bool              AL:1           <RETURN>
                             __scrt_is_ucrt_dll_in_use                       XREF[3]:     __scrt_acquire_startup_lock:1400
                                                                                          __scrt_initialize_onexit_tables:
                                                                                          __scrt_release_startup_lock:1400
       140001fdc 33  c0           XOR        EAX ,EAX
       140001fde 39  05  6c       CMP        dword ptr [DAT_140004150 ],EAX                   = 01h
                 21  00  00
       140001fe4 0f  95  c0       SETNZ      AL
       140001fe7 c3              RET
       140001fe8 cc              ??         CCh
       140001fe9 cc              ??         CCh
       140001fea cc              ??         CCh
       140001feb cc              ??         CCh
       140001fec cc              ??         CCh
       140001fed cc              ??         CCh
       140001fee cc              ??         CCh
       140001fef cc              ??         CCh
                             *************************************************************
                             *                        THUNK FUNCTION                       
                             *************************************************************
                             thunk  int  __cdecl  memcmp (void *  _Buf1 , void *  _Buf2 , si
                               Thunked-Function:  VCRUNTIME140.DLL::memc
                               assume GS_OFFSET = 0xff00000000
             int               EAX:4          <RETURN>
             void *            RCX:8          _Buf1
             void *            RDX:8          _Buf2
             size_t            R8:8           _Size
                             VCRUNTIME140.DLL::memcmp                        XREF[1]:     FUN_140001000:14000107d (c)   
       140001ff0 ff  25  aa       JMP        qword ptr [->VCRUNTIME140.DLL::memcmp ]
                 10  00  00
                             LAB_140001ff6                                   XREF[2]:     14000376c (*) , 1400037b0 (*)   
       140001ff6 ff  25  8c       JMP        qword ptr [->VCRUNTIME140.DLL::__C_specific_ha
                 10  00  00
                             *************************************************************
                             *                        THUNK FUNCTION                       
                             *************************************************************
                             thunk  undefined  __current_exception ()
                               Thunked-Function:  VCRUNTIME140.DLL::__cu
                               assume GS_OFFSET = 0xff00000000
             undefined         AL:1           <RETURN>
                             VCRUNTIME140.DLL::__current_exception           XREF[1]:     140001da5 (c)   
       140001ffc ff  25  7e       JMP        qword ptr [->VCRUNTIME140.DLL::__current_excep
                 10  00  00
                             *************************************************************
                             *                        THUNK FUNCTION                       
                             *************************************************************
                             thunk  undefined  __current_exception_context ()
                               Thunked-Function:  VCRUNTIME140.DLL::__cu
                               assume GS_OFFSET = 0xff00000000
             undefined         AL:1           <RETURN>
                             VCRUNTIME140.DLL::__current_exception_context   XREF[1]:     140001db1 (c)   
       140002002 ff  25  88       JMP        qword ptr [->VCRUNTIME140.DLL::__current_excep
                 10  00  00
                             *************************************************************
                             *                        THUNK FUNCTION                       
                             *************************************************************
                             thunk  void *  __cdecl  memset (void *  _Dst , int  _Val , size
                               Thunked-Function:  VCRUNTIME140.DLL::mems
                               assume GS_OFFSET = 0xff00000000
             void *            RAX:8          <RETURN>
             void *            RCX:8          _Dst
             int               EDX:4          _Val
             size_t            R8:8           _Size
                             VCRUNTIME140.DLL::memset                        XREF[2]:     __scrt_fastfail:140001beb (c) , 
                                                                                          __scrt_fastfail:140001c82 (c)   
       140002008 ff  25  8a       JMP        qword ptr [->VCRUNTIME140.DLL::memset ]
                 10  00  00
                             *************************************************************
                             *                        THUNK FUNCTION                       
                             *************************************************************
                             thunk  size_t  __cdecl  strlen (char *  _Str )
                               Thunked-Function:  API-MS-WIN-CRT-STRING-
                               assume GS_OFFSET = 0xff00000000
             size_t            RAX:8          <RETURN>
             char *            RCX:8          _Str
                             API-MS-WIN-CRT-STRING-L1-1-0.DLL::strlen        XREF[1]:     FUN_140001000:14000100e (c)   
       14000200e ff  25  9c       JMP        qword ptr [->API-MS-WIN-CRT-STRING-L1-1-0.DLL:
                 11  00  00
                             *************************************************************
                             *                        THUNK FUNCTION                       
                             *************************************************************
                             thunk  undefined  _seh_filter_exe ()
                               Thunked-Function:  API-MS-WIN-CRT-RUNTIME
                               assume GS_OFFSET = 0xff00000000
             undefined         AL:1           <RETURN>
                             API-MS-WIN-CRT-RUNTIME-L1-1-0.DLL::_seh_filter  XREF[1]:     1400020d3 (c)   
       140002014 ff  25  f6       JMP        qword ptr [->API-MS-WIN-CRT-RUNTIME-L1-1-0.DLL
                 10  00  00
                             *************************************************************
                             *                        THUNK FUNCTION                       
                             *************************************************************
                             thunk  undefined  _set_app_type ()
                               Thunked-Function:  API-MS-WIN-CRT-RUNTIME
                               assume GS_OFFSET = 0xff00000000
             undefined         AL:1           <RETURN>
                             API-MS-WIN-CRT-RUNTIME-L1-1-0.DLL::_set_app_ty  XREF[1]:     FUN_140001454:14000145f (c)   
       14000201a ff  25  f8       JMP        qword ptr [->API-MS-WIN-CRT-RUNTIME-L1-1-0.DLL
                 10  00  00
                             *************************************************************
                             *                        THUNK FUNCTION                       
                             *************************************************************
                             thunk  undefined  __setusermatherr ()
                               Thunked-Function:  API-MS-WIN-CRT-MATH-L1
                               assume GS_OFFSET = 0xff00000000
             undefined         AL:1           <RETURN>
                             API-MS-WIN-CRT-MATH-L1-1-0.DLL::__setusermathe  XREF[1]:     FUN_140001454:1400014c2 (c)   
       140002020 ff  25  aa       JMP        qword ptr [->API-MS-WIN-CRT-MATH-L1-1-0.DLL::_
                 10  00  00
                             *************************************************************
                             *                        THUNK FUNCTION                       
                             *************************************************************
                             thunk  undefined  _configure_narrow_argv ()
                               Thunked-Function:  API-MS-WIN-CRT-RUNTIME
                               assume GS_OFFSET = 0xff00000000
             undefined         AL:1           <RETURN>
                             API-MS-WIN-CRT-RUNTIME-L1-1-0.DLL::_configure_  XREF[1]:     FUN_140001454:1400014a4 (c)   
       140002026 ff  25  3c       JMP        qword ptr [->API-MS-WIN-CRT-RUNTIME-L1-1-0.DLL
                 11  00  00
                             *************************************************************
                             *                        THUNK FUNCTION                       
                             *************************************************************
                             thunk  undefined  _initialize_narrow_environment ()
                               Thunked-Function:  API-MS-WIN-CRT-RUNTIME
                               assume GS_OFFSET = 0xff00000000
             undefined         AL:1           <RETURN>
                             API-MS-WIN-CRT-RUNTIME-L1-1-0.DLL::_initialize  XREF[1]:     FUN_140001454:1400014e6 (c)   
       14000202c ff  25  2e       JMP        qword ptr [->API-MS-WIN-CRT-RUNTIME-L1-1-0.DLL
                 11  00  00
                             *************************************************************
                             *                        THUNK FUNCTION                       
                             *************************************************************
                             thunk  undefined  _get_initial_narrow_environment ()
                               Thunked-Function:  API-MS-WIN-CRT-RUNTIME
                               assume GS_OFFSET = 0xff00000000
             undefined         AL:1           <RETURN>
                             API-MS-WIN-CRT-RUNTIME-L1-1-0.DLL::_get_initia  XREF[1]:     FUN_140001538:140001622 (c)   
       140002032 ff  25  20       JMP        qword ptr [->API-MS-WIN-CRT-RUNTIME-L1-1-0.DLL
                 11  00  00
                             *************************************************************
                             *                        THUNK FUNCTION                       
                             *************************************************************
                             thunk  undefined  _initterm ()
                               Thunked-Function:  API-MS-WIN-CRT-RUNTIME
                               assume GS_OFFSET = 0xff00000000
             undefined         AL:1           <RETURN>
                             API-MS-WIN-CRT-RUNTIME-L1-1-0.DLL::_initterm    XREF[1]:     FUN_140001538:1400015b4 (c)   
       140002038 ff  25  12       JMP        qword ptr [->API-MS-WIN-CRT-RUNTIME-L1-1-0.DLL
                 11  00  00
                             *************************************************************
                             *                        THUNK FUNCTION                       
                             *************************************************************
                             thunk  undefined  _initterm_e ()
                               Thunked-Function:  API-MS-WIN-CRT-RUNTIME
                               assume GS_OFFSET = 0xff00000000
             undefined         AL:1           <RETURN>
                             API-MS-WIN-CRT-RUNTIME-L1-1-0.DLL::_initterm_e  XREF[1]:     FUN_140001538:140001593 (c)   
       14000203e ff  25  04       JMP        qword ptr [->API-MS-WIN-CRT-RUNTIME-L1-1-0.DLL
                 11  00  00
                             *************************************************************
                             *                        THUNK FUNCTION                       
                             *************************************************************
                             thunk  noreturn  void  __cdecl  exit (int  _Code )
                               Thunked-Function:  API-MS-WIN-CRT-RUNTIME
                               assume GS_OFFSET = 0xff00000000
             void              <VOID>         <RETURN>
             int               ECX:4          _Code
                             API-MS-WIN-CRT-RUNTIME-L1-1-0.DLL::exit         XREF[1]:     FUN_140001538:1400016a6 (c)   
       140002044 ff  25  f6       JMP        qword ptr [->API-MS-WIN-CRT-RUNTIME-L1-1-0.DLL
                 10  00  00
                             *************************************************************
                             *                        THUNK FUNCTION                       
                             *************************************************************
                             thunk  noreturn  void  __cdecl  _exit (int  _Code )
                               Thunked-Function:  API-MS-WIN-CRT-RUNTIME
                               assume GS_OFFSET = 0xff00000000
             void              <VOID>         <RETURN>
             int               ECX:4          _Code
                             API-MS-WIN-CRT-RUNTIME-L1-1-0.DLL::_exit
       14000204a ff  25  e8       JMP        qword ptr [->API-MS-WIN-CRT-RUNTIME-L1-1-0.DLL
                 10  00  00
                             *************************************************************
                             *                        THUNK FUNCTION                       
                             *************************************************************
                             thunk  errno_t  __cdecl  _set_fmode (int  _Mode )
                               Thunked-Function:  API-MS-WIN-CRT-STDIO-L
                               assume GS_OFFSET = 0xff00000000
             errno_t           EAX:4          <RETURN>
             int               ECX:4          _Mode
                             API-MS-WIN-CRT-STDIO-L1-1-0.DLL::_set_fmode     XREF[1]:     FUN_140001454:14000146b (c)   
       140002050 ff  25  22       JMP        qword ptr [->API-MS-WIN-CRT-STDIO-L1-1-0.DLL::
                 11  00  00
                             *************************************************************
                             *                        THUNK FUNCTION                       
                             *************************************************************
                             thunk  undefined  __p___argc ()
                               Thunked-Function:  API-MS-WIN-CRT-RUNTIME
                               assume GS_OFFSET = 0xff00000000
             undefined         AL:1           <RETURN>
                             API-MS-WIN-CRT-RUNTIME-L1-1-0.DLL::__p___argc   XREF[1]:     FUN_140001538:140001632 (c)   
       140002056 ff  25  cc       JMP        qword ptr [->API-MS-WIN-CRT-RUNTIME-L1-1-0.DLL
                 10  00  00
                             *************************************************************
                             *                        THUNK FUNCTION                       
                             *************************************************************
                             thunk  undefined  __p___argv ()
                               Thunked-Function:  API-MS-WIN-CRT-RUNTIME
                               assume GS_OFFSET = 0xff00000000
             undefined         AL:1           <RETURN>
                             API-MS-WIN-CRT-RUNTIME-L1-1-0.DLL::__p___argv   XREF[1]:     FUN_140001538:14000162a (c)   
       14000205c ff  25  8e       JMP        qword ptr [->API-MS-WIN-CRT-RUNTIME-L1-1-0.DLL
                 10  00  00
                             *************************************************************
                             *                        THUNK FUNCTION                       
                             *************************************************************
                             thunk  void  __cdecl  _cexit (void )
                               Thunked-Function:  API-MS-WIN-CRT-RUNTIME
                               assume GS_OFFSET = 0xff00000000
             void              <VOID>         <RETURN>
                             API-MS-WIN-CRT-RUNTIME-L1-1-0.DLL::_cexit       XREF[1]:     FUN_140001538:140001654 (c)   
       140002062 ff  25  78       JMP        qword ptr [->API-MS-WIN-CRT-RUNTIME-L1-1-0.DLL
                 10  00  00
       140002068 ff              ??         FFh
       140002069 25              ??         25h    %
       14000206a 8a              ??         8Ah
       14000206b 10              ??         10h
       14000206c 00              ??         00h
       14000206d 00              ??         00h
                             *************************************************************
                             *                        THUNK FUNCTION                       
                             *************************************************************
                             thunk  undefined  _register_thread_local_exe_atexit_callba
                               Thunked-Function:  API-MS-WIN-CRT-RUNTIME
                               assume GS_OFFSET = 0xff00000000
             undefined         AL:1           <RETURN>
                             API-MS-WIN-CRT-RUNTIME-L1-1-0.DLL::_register_t  XREF[1]:     FUN_140001538:14000161d (c)   
       14000206e ff  25  ac       JMP        qword ptr [->API-MS-WIN-CRT-RUNTIME-L1-1-0.DLL
                 10  00  00
                             *************************************************************
                             *                        THUNK FUNCTION                       
                             *************************************************************
                             thunk  int  __cdecl  _configthreadlocale (int  _Flag )
                               Thunked-Function:  API-MS-WIN-CRT-LOCALE-
                               assume GS_OFFSET = 0xff00000000
             int               EAX:4          <RETURN>
             int               ECX:4          _Flag
                             API-MS-WIN-CRT-LOCALE-L1-1-0.DLL::_configthrea  XREF[1]:     FUN_140001454:1400014d8 (c)   
       140002074 ff  25  46       JMP        qword ptr [->API-MS-WIN-CRT-LOCALE-L1-1-0.DLL:
                 10  00  00
                             LAB_14000207a                                   XREF[1]:     140001530 (j)   
       14000207a ff  25  30       JMP        qword ptr [->API-MS-WIN-CRT-HEAP-L1-1-0.DLL::_
                 10  00  00
                             *************************************************************
                             *                        THUNK FUNCTION                       
                             *************************************************************
                             thunk  undefined  __p__commode ()
                               Thunked-Function:  API-MS-WIN-CRT-STDIO-L
                               assume GS_OFFSET = 0xff00000000
             undefined         AL:1           <RETURN>
                             API-MS-WIN-CRT-STDIO-L1-1-0.DLL::__p__commode   XREF[1]:     FUN_140001454:140001477 (c)   
       140002080 ff  25  1a       JMP        qword ptr [->API-MS-WIN-CRT-STDIO-L1-1-0.DLL::
                 11  00  00
                             *************************************************************
                             *                        THUNK FUNCTION                       
                             *************************************************************
                             thunk  undefined  _initialize_onexit_table ()
                               Thunked-Function:  API-MS-WIN-CRT-RUNTIME
                               assume GS_OFFSET = 0xff00000000
             undefined         AL:1           <RETURN>
                             API-MS-WIN-CRT-RUNTIME-L1-1-0.DLL::_initialize  XREF[2]:     __scrt_initialize_onexit_tables:
                                                                                          __scrt_initialize_onexit_tables:
       140002086 ff  25  5c       JMP        qword ptr [->API-MS-WIN-CRT-RUNTIME-L1-1-0.DLL
                 10  00  00
                             *************************************************************
                             *                        THUNK FUNCTION                       
                             *************************************************************
                             thunk  undefined  _register_onexit_function ()
                               Thunked-Function:  API-MS-WIN-CRT-RUNTIME
                               assume GS_OFFSET = 0xff00000000
             undefined         AL:1           <RETURN>
                             API-MS-WIN-CRT-RUNTIME-L1-1-0.DLL::_register_o  XREF[1]:     _onexit:140001a64 (c)   
       14000208c ff  25  9e       JMP        qword ptr [->API-MS-WIN-CRT-RUNTIME-L1-1-0.DLL
                 10  00  00
                             *************************************************************
                             *                        THUNK FUNCTION                       
                             *************************************************************
                             thunk  undefined  _crt_atexit ()
                               Thunked-Function:  API-MS-WIN-CRT-RUNTIME
                               assume GS_OFFSET = 0xff00000000
             undefined         AL:1           <RETURN>
                             API-MS-WIN-CRT-RUNTIME-L1-1-0.DLL::_crt_atexit  XREF[1]:     _onexit:140001a53 (c)   
       140002092 ff  25  68       JMP        qword ptr [->API-MS-WIN-CRT-RUNTIME-L1-1-0.DLL
                 10  00  00
                             *************************************************************
                             *                        THUNK FUNCTION                       
                             *************************************************************
                             thunk  noreturn  undefined  terminate ()
                               Thunked-Function:  API-MS-WIN-CRT-RUNTIME
                               assume GS_OFFSET = 0xff00000000
             undefined         AL:1           <RETURN>
                             API-MS-WIN-CRT-RUNTIME-L1-1-0.DLL::terminate    XREF[1]:     140001db9 (c)   
       140002098 ff  25  6a       JMP        qword ptr [->API-MS-WIN-CRT-RUNTIME-L1-1-0.DLL
                 10  00  00
                             *************************************************************
                             *                        THUNK FUNCTION                       
                             *************************************************************
                             thunk  BOOL  __stdcall  IsProcessorFeaturePresent (DWORD  Pr
                               Thunked-Function:  KERNEL32.DLL::IsProces
                               assume GS_OFFSET = 0xff00000000
             BOOL              EAX:4          <RETURN>
             DWORD             ECX:4          ProcessorFeature
                             KERNEL32.DLL::IsProcessorFeaturePresent         XREF[2]:     __report_gsfailure:14000170a (c) , 
                                                                                          __scrt_fastfail:140001bc8 (c)   
       14000209e ff  25  c4       JMP        qword ptr [->KERNEL32.DLL::IsProcessorFeatureP
                 0f  00  00
      
                             *************************************************************
                             *                           FUNCTION                          
                             *************************************************************
                             undefined  __fastcall  _guard_dispatch_icall (void )
                               Call-Fixup:  guard_dispatch_icall
                               assume GS_OFFSET = 0xff00000000
             undefined         AL:1           <RETURN>
                             _guard_dispatch_icall                           XREF[5]:     FUN_140001538:1400015fa (c) , 
                                                                                          FUN_140001dc0:140001de2 (c) , 
                                                                                          140001e1e (c) , 1400031c8 (*) , 
                                                                                          140005198 (*)   
       1400020c0 ff  e0           JMP        RAX
                             LAB_1400020c2                                   XREF[2]:     14000519c (*) , 1400051a4 (*)   
       1400020c2 40  55           PUSH       RBP
       1400020c4 48  83  ec  20    SUB        RSP ,0x20
       1400020c8 48  8b  ea       MOV        RBP ,RDX
       1400020cb 48  8b  01       MOV        RAX ,qword ptr [RCX ]
       1400020ce 48  8b  d1       MOV        RDX ,RCX
       1400020d1 8b  08           MOV        ECX ,dword ptr [RAX ]
       1400020d3 e8  3c  ff       CALL       API-MS-WIN-CRT-RUNTIME-L1-1-0.DLL::_seh_filter   undefined _seh_filter_exe()
                 ff  ff
       1400020d8 90              NOP
       1400020d9 48  83  c4  20    ADD        RSP ,0x20
       1400020dd 5d              POP        RBP
       1400020de c3              RET
       1400020df cc              ??         CCh
                             LAB_1400020e0                                   XREF[2]:     1400051a8 (*) , 1400051b0 (*)   
       1400020e0 40  55           PUSH       RBP
       1400020e2 48  8b  ea       MOV        RBP ,RDX
       1400020e5 48  8b  01       MOV        RAX ,qword ptr [RCX ]
       1400020e8 33  c9           XOR        ECX ,ECX
       1400020ea 81  38  05       CMP        dword ptr [RAX ],0xc0000005
                 00  00  c0
       1400020f0 0f  94  c1       SETZ       CL
       1400020f3 8b  c1           MOV        EAX ,ECX
       1400020f5 5d              POP        RBP
       1400020f6 c3              RET
       1400020f7 cc              ??         CCh
                             DAT_1400020f8                                   XREF[1]:     1400051b4 (*)   
      
                             //
                             // .rdata 
                             // ram:140003000-ram:140003fff
                             //
                             *************************************************************
                             *                 POINTER to EXTERNAL FUNCTION               
                             *************************************************************
                             DWORD  __stdcall  GetCurrentThreadId (void )
             DWORD             EAX:4          <RETURN>
             assume GS_OFFSET = <UNKNOWN>
                             546  GetCurrentThreadId  <<not bound>>
                             PTR_GetCurrentThreadId_140003000                XREF[3]:     1400001e0 (*) , 140000234 (*) , 
                                                                                          __security_init_cookie:140001ace
       140003000 b2  3e  00       addr       KERNEL32.DLL::GetCurrentThreadId
                 00  00  00 
                 00  00
                             *************************************************************
                             *                 POINTER to EXTERNAL FUNCTION               
                             *************************************************************
                             PRUNTIME_FUNCTION  __stdcall  RtlLookupFunctionEntry (DWOR
             PRUNTIME_FUNCT    RAX:8          <RETURN>
             DWORD64           RCX:8          ControlPc
             PDWORD64          RDX:8          ImageBase
             PUNWIND_HISTOR    R8:8           HistoryTable
                             1242  RtlLookupFunctionEntry  <<not bound>>
                             PTR_RtlLookupFunctionEntry_140003008            XREF[2]:     capture_previous_context:1400017
                                                                                          __scrt_fastfail:140001c0e (R)   
       140003008 d6  3d  00       addr       KERNEL32.DLL::RtlLookupFunctionEntry
                 00  00  00 
                 00  00
                             *************************************************************
                             *                 POINTER to EXTERNAL FUNCTION               
                             *************************************************************
                             PEXCEPTION_ROUTINE  __stdcall  RtlVirtualUnwind (DWORD  Han
             PEXCEPTION_ROU    RAX:8          <RETURN>
             DWORD             ECX:4          HandlerType
             DWORD64           RDX:8          ImageBase
             DWORD64           R8:8           ControlPc
             PRUNTIME_FUNCT    R9:8           FunctionEntry
             PCONTEXT          Stack[0x28]:8  ContextRecord
             PVOID *           Stack[0x30]:8  HandlerData
             PDWORD64          Stack[0x38]:8  EstablisherFrame
             PKNONVOLATILE_    Stack[0x40]:8  ContextPointers
                             1249  RtlVirtualUnwind  <<not bound>>
                             PTR_RtlVirtualUnwind_140003010                  XREF[2]:     capture_previous_context:1400018
                                                                                          __scrt_fastfail:140001c4f (R)   
       140003010 f0  3d  00       addr       KERNEL32.DLL::RtlVirtualUnwind
                 00  00  00 
                 00  00
                             *************************************************************
                             *                 POINTER to EXTERNAL FUNCTION               
                             *************************************************************
                             LONG  __stdcall  UnhandledExceptionFilter (_EXCEPTION_POIN
             LONG              EAX:4          <RETURN>
             _EXCEPTION_POI    RCX:8          ExceptionInfo
                             1468  UnhandledExceptionFilter  <<not bound>>
                             PTR_UnhandledExceptionFilter_140003018          XREF[2]:     __raise_securityfailure:1400016d
                                                                                          __scrt_fastfail:140001ccf (R)   
       140003018 04  3e  00       addr       KERNEL32.DLL::UnhandledExceptionFilter
                 00  00  00 
                 00  00
                             *************************************************************
                             *                 POINTER to EXTERNAL FUNCTION               
                             *************************************************************
                             LPTOP_LEVEL_EXCEPTION_FILTER  __stdcall  SetUnhandledExce
             LPTOP_LEVEL_EX    RAX:8          <RETURN>
             LPTOP_LEVEL_EX    RCX:8          lpTopLevelExceptionFilter
                             1403  SetUnhandledExceptionFilter  <<not bound>>
                             PTR_SetUnhandledExceptionFilter_140003020       XREF[3]:     __raise_securityfailure:1400016d
                                                                                          __scrt_fastfail:140001cc4 (R) , 
                                                                                          FUN_140001d54:140001d5b   
       140003020 20  3e  00       addr       KERNEL32.DLL::SetUnhandledExceptionFilter
                 00  00  00 
                 00  00
                             *************************************************************
                             *                 POINTER to EXTERNAL FUNCTION               
                             *************************************************************
                             HANDLE  __stdcall  GetCurrentProcess (void )
             HANDLE            RAX:8          <RETURN>
                             541  GetCurrentProcess  <<not bound>>
                             PTR_GetCurrentProcess_140003028                 XREF[1]:     __raise_securityfailure:1400016e
       140003028 3e  3e  00       addr       KERNEL32.DLL::GetCurrentProcess
                 00  00  00 
                 00  00
                             *************************************************************
                             *                 POINTER to EXTERNAL FUNCTION               
                             *************************************************************
                             HMODULE  __stdcall  GetModuleHandleW (LPCWSTR  lpModuleName )
             HMODULE           RAX:8          <RETURN>
             LPCWSTR           RCX:8          lpModuleName
                             638  GetModuleHandleW  <<not bound>>
                             PTR_GetModuleHandleW_140003030                  XREF[1]:     __scrt_is_managed_app:140001d06
       140003030 0c  3f  00       addr       KERNEL32.DLL::GetModuleHandleW
                 00  00  00 
                 00  00
                             *************************************************************
                             *                 POINTER to EXTERNAL FUNCTION               
                             *************************************************************
                             BOOL  __stdcall  IsDebuggerPresent (void )
             BOOL              EAX:4          <RETURN>
                             898  IsDebuggerPresent  <<not bound>>
                             PTR_IsDebuggerPresent_140003038                 XREF[1]:     __scrt_fastfail:140001ca3 (R)   
       140003038 f8  3e  00       addr       KERNEL32.DLL::IsDebuggerPresent
                 00  00  00 
                 00  00
                             876  InitializeSListHead  <<not bound>>
                             PTR_InitializeSListHead_140003040               XREF[1]:     FUN_140001b54:140001b5b   
       140003040 e2  3e  00       addr       KERNEL32.DLL::InitializeSListHead
                 00  00  00 
                 00  00
                             *************************************************************
                             *                 POINTER to EXTERNAL FUNCTION               
                             *************************************************************
                             void  __stdcall  GetSystemTimeAsFileTime (LPFILETIME  lpSys
             void              <VOID>         <RETURN>
             LPFILETIME        RCX:8          lpSystemTimeAsFileTime
                             752  GetSystemTimeAsFileTime  <<not bound>>
                             PTR_GetSystemTimeAsFileTime_140003048           XREF[1]:     __security_init_cookie:140001ac0
       140003048 c8  3e  00       addr       KERNEL32.DLL::GetSystemTimeAsFileTime
                 00  00  00 
                 00  00
                             *************************************************************
                             *                 POINTER to EXTERNAL FUNCTION               
                             *************************************************************
                             undefined  RtlCaptureContext ()
             undefined         AL:1           <RETURN>
                             1235  RtlCaptureContext  <<not bound>>
                             PTR_RtlCaptureContext_140003050                 XREF[2]:     capture_previous_context:1400017
                                                                                          __scrt_fastfail:140001bf4 (R)   
       140003050 c2  3d  00       addr       KERNEL32.DLL::RtlCaptureContext
                 00  00  00 
                 00  00
                             *************************************************************
                             *                 POINTER to EXTERNAL FUNCTION               
                             *************************************************************
                             DWORD  __stdcall  GetCurrentProcessId (void )
             DWORD             EAX:4          <RETURN>
                             542  GetCurrentProcessId  <<not bound>>
                             PTR_GetCurrentProcessId_140003058               XREF[1]:     __security_init_cookie:140001ada
       140003058 9c  3e  00       addr       KERNEL32.DLL::GetCurrentProcessId
                 00  00  00 
                 00  00
                             *************************************************************
                             *                 POINTER to EXTERNAL FUNCTION               
                             *************************************************************
                             BOOL  __stdcall  QueryPerformanceCounter (LARGE_INTEGER * 
             BOOL              EAX:4          <RETURN>
             LARGE_INTEGER *   RCX:8          lpPerformanceCount
                             1104  QueryPerformanceCounter  <<not bound>>
                             PTR_QueryPerformanceCounter_140003060           XREF[1]:     __security_init_cookie:140001aea
       140003060 82  3e  00       addr       KERNEL32.DLL::QueryPerformanceCounter
                 00  00  00 
                 00  00
                             *************************************************************
                             *                 POINTER to EXTERNAL FUNCTION               
                             *************************************************************
                             BOOL  __stdcall  IsProcessorFeaturePresent (DWORD  Processo
             BOOL              EAX:4          <RETURN>
             DWORD             ECX:4          ProcessorFeature
                             905  IsProcessorFeaturePresent  <<not bound>>
                             PTR_IsProcessorFeaturePresent_140003068         XREF[1]:     IsProcessorFeaturePresent:140002
       140003068 66  3e  00       addr       KERNEL32.DLL::IsProcessorFeaturePresent
                 00  00  00 
                 00  00
                             1434  TerminateProcess  <<not bound>>
                             PTR_TerminateProcess_140003070                  XREF[1]:     __raise_securityfailure:1400016f
       140003070 52  3e  00       addr       KERNEL32.DLL::TerminateProcess
                 00  00  00 
                 00  00
       140003078 00              ??         00h
       140003079 00              ??         00h
       14000307a 00              ??         00h
       14000307b 00              ??         00h
       14000307c 00              ??         00h
       14000307d 00              ??         00h
       14000307e 00              ??         00h
       14000307f 00              ??         00h
                             *************************************************************
                             *                 POINTER to EXTERNAL FUNCTION               
                             *************************************************************
                             undefined  __current_exception ()
             undefined         AL:1           <RETURN>
                             27  __current_exception  <<not bound>>
                             PTR___current_exception_140003080               XREF[1]:     __current_exception:140001ffc   
       140003080 a2  3a  00       addr       VCRUNTIME140.DLL::__current_exception
                 00  00  00 
                 00  00
                             8  __C_specific_handler  <<not bound>>
                             PTR___C_specific_handler_140003088              XREF[1]:     140001ff6   
       140003088 8a  3a  00       addr       VCRUNTIME140.DLL::__C_specific_handler
                 00  00  00 
                 00  00
                             *************************************************************
                             *                 POINTER to EXTERNAL FUNCTION               
                             *************************************************************
                             undefined  __current_exception_context ()
             undefined         AL:1           <RETURN>
                             28  __current_exception_context  <<not bound>>
                             PTR___current_exception_context_140003090       XREF[1]:     __current_exception_context:1400
       140003090 b8  3a  00       addr       VCRUNTIME140.DLL::__current_exception_context
                 00  00  00 
                 00  00
                             *************************************************************
                             *                 POINTER to EXTERNAL FUNCTION               
                             *************************************************************
                             void *  __cdecl  memset (void *  _Dst , int  _Val , size_t  _Si
             void *            RAX:8          <RETURN>
             void *            RCX:8          _Dst
             int               EDX:4          _Val
             size_t            R8:8           _Size
                             62  memset  <<not bound>>
                             PTR_memset_140003098                            XREF[1]:     memset:140002008   
       140003098 d6  3a  00       addr       VCRUNTIME140.DLL::memset
                 00  00  00 
                 00  00
                             *************************************************************
                             *                 POINTER to EXTERNAL FUNCTION               
                             *************************************************************
                             int  __cdecl  memcmp (void *  _Buf1 , void *  _Buf2 , size_t  _
             int               EAX:4          <RETURN>
             void *            RCX:8          _Buf1
             void *            RDX:8          _Buf2
             size_t            R8:8           _Size
                             59  memcmp  <<not bound>>
                             PTR_memcmp_1400030a0                            XREF[1]:     memcmp:140001ff0   
       1400030a0 80  3a  00       addr       VCRUNTIME140.DLL::memcmp
                 00  00  00 
                 00  00
       1400030a8 00              ??         00h
       1400030a9 00              ??         00h
       1400030aa 00              ??         00h
       1400030ab 00              ??         00h
       1400030ac 00              ??         00h
       1400030ad 00              ??         00h
       1400030ae 00              ??         00h
       1400030af 00              ??         00h
                             22  _set_new_mode  <<not bound>>
                             PTR__set_new_mode_1400030b0                     XREF[1]:     14000207a   
       1400030b0 8a  3c  00       addr       API-MS-WIN-CRT-HEAP-L1-1-0.DLL::_set_new_mode
                 00  00  00 
                 00  00
       1400030b8 00              ??         00h
       1400030b9 00              ??         00h
       1400030ba 00              ??         00h
       1400030bb 00              ??         00h
       1400030bc 00              ??         00h
       1400030bd 00              ??         00h
       1400030be 00              ??         00h
       1400030bf 00              ??         00h
                             *************************************************************
                             *                 POINTER to EXTERNAL FUNCTION               
                             *************************************************************
                             int  __cdecl  _configthreadlocale (int  _Flag )
             int               EAX:4          <RETURN>
             int               ECX:4          _Flag
                             8  _configthreadlocale  <<not bound>>
                             PTR__configthreadlocale_1400030c0               XREF[1]:     _configthreadlocale:140002074   
       1400030c0 74  3c  00       addr       API-MS-WIN-CRT-LOCALE-L1-1-0.DLL::_configthrea
                 00  00  00 
                 00  00
       1400030c8 00              ??         00h
       1400030c9 00              ??         00h
       1400030ca 00              ??         00h
       1400030cb 00              ??         00h
       1400030cc 00              ??         00h
       1400030cd 00              ??         00h
       1400030ce 00              ??         00h
       1400030cf 00              ??         00h
                             *************************************************************
                             *                 POINTER to EXTERNAL FUNCTION               
                             *************************************************************
                             undefined  __setusermatherr ()
             undefined         AL:1           <RETURN>
                             9  __setusermatherr  <<not bound>>
                             PTR___setusermatherr_1400030d0                  XREF[1]:     __setusermatherr:140002020   
       1400030d0 6c  3b  00       addr       API-MS-WIN-CRT-MATH-L1-1-0.DLL::__setusermathe
                 00  00  00 
                 00  00
       1400030d8 00              ??         00h
       1400030d9 00              ??         00h
       1400030da 00              ??         00h
       1400030db 00              ??         00h
       1400030dc 00              ??         00h
       1400030dd 00              ??         00h
       1400030de 00              ??         00h
       1400030df 00              ??         00h
                             *************************************************************
                             *                 POINTER to EXTERNAL FUNCTION               
                             *************************************************************
                             void  __cdecl  _cexit (void )
             void              <VOID>         <RETURN>
                             22  _cexit  <<not bound>>
                             PTR__cexit_1400030e0                            XREF[1]:     _cexit:140002062   
       1400030e0 32  3c  00       addr       API-MS-WIN-CRT-RUNTIME-L1-1-0.DLL::_cexit
                 00  00  00 
                 00  00
                             *************************************************************
                             *                 POINTER to EXTERNAL FUNCTION               
                             *************************************************************
                             undefined  _initialize_onexit_table ()
             undefined         AL:1           <RETURN>
                             52  _initialize_onexit_table  <<not bound>>
                             PTR__initialize_onexit_table_1400030e8          XREF[1]:     _initialize_onexit_table:1400020
       1400030e8 aa  3c  00       addr       API-MS-WIN-CRT-RUNTIME-L1-1-0.DLL::_initialize
                 00  00  00 
                 00  00
                             *************************************************************
                             *                 POINTER to EXTERNAL FUNCTION               
                             *************************************************************
                             undefined  __p___argv ()
             undefined         AL:1           <RETURN>
                             5  __p___argv  <<not bound>>
                             PTR___p___argv_1400030f0                        XREF[1]:     __p___argv:14000205c   
       1400030f0 24  3c  00       addr       API-MS-WIN-CRT-RUNTIME-L1-1-0.DLL::__p___argv
                 00  00  00 
                 00  00
                             *************************************************************
                             *                 POINTER to EXTERNAL FUNCTION               
                             *************************************************************
                             void  __cdecl  _c_exit (void )
             void              <VOID>         <RETURN>
                             21  _c_exit  <<not bound>>
       1400030f8 3c  3c  00       addr       API-MS-WIN-CRT-RUNTIME-L1-1-0.DLL::_c_exit
                 00  00  00 
                 00  00
                             *************************************************************
                             *                 POINTER to EXTERNAL FUNCTION               
                             *************************************************************
                             undefined  _crt_atexit ()
             undefined         AL:1           <RETURN>
                             30  _crt_atexit  <<not bound>>
                             PTR__crt_atexit_140003100                       XREF[1]:     _crt_atexit:140002092   
       140003100 e2  3c  00       addr       API-MS-WIN-CRT-RUNTIME-L1-1-0.DLL::_crt_atexit
                 00  00  00 
                 00  00
                             *************************************************************
                             *                 POINTER to EXTERNAL FUNCTION               
                             *************************************************************
                             noreturn  undefined  terminate ()
             undefined         AL:1           <RETURN>
                             103  terminate  <<not bound>>
                             PTR_terminate_140003108                         XREF[1]:     terminate:140002098   
       140003108 f0  3c  00       addr       API-MS-WIN-CRT-RUNTIME-L1-1-0.DLL::terminate
                 00  00  00 
                 00  00
                             *************************************************************
                             *                 POINTER to EXTERNAL FUNCTION               
                             *************************************************************
                             undefined  _seh_filter_exe ()
             undefined         AL:1           <RETURN>
                             64  _seh_filter_exe  <<not bound>>
                             PTR__seh_filter_exe_140003110                   XREF[1]:     _seh_filter_exe:140002014   
       140003110 4a  3b  00       addr       API-MS-WIN-CRT-RUNTIME-L1-1-0.DLL::_seh_filter
                 00  00  00 
                 00  00
                             *************************************************************
                             *                 POINTER to EXTERNAL FUNCTION               
                             *************************************************************
                             undefined  _set_app_type ()
             undefined         AL:1           <RETURN>
                             66  _set_app_type  <<not bound>>
                             PTR__set_app_type_140003118                     XREF[1]:     _set_app_type:14000201a   
       140003118 5c  3b  00       addr       API-MS-WIN-CRT-RUNTIME-L1-1-0.DLL::_set_app_ty
                 00  00  00 
                 00  00
                             *************************************************************
                             *                 POINTER to EXTERNAL FUNCTION               
                             *************************************************************
                             undefined  _register_thread_local_exe_atexit_callback ()
             undefined         AL:1           <RETURN>
                             61  _register_thread_local_exe_atexit_callback  <<not bound>>
                             PTR__register_thread_local_exe_atexit_callback  XREF[1]:     _register_thread_local_exe_atexi
       140003120 46  3c  00       addr       API-MS-WIN-CRT-RUNTIME-L1-1-0.DLL::_register_t
                 00  00  00 
                 00  00
                             *************************************************************
                             *                 POINTER to EXTERNAL FUNCTION               
                             *************************************************************
                             undefined  __p___argc ()
             undefined         AL:1           <RETURN>
                             4  __p___argc  <<not bound>>
                             PTR___p___argc_140003128                        XREF[1]:     __p___argc:140002056   
       140003128 16  3c  00       addr       API-MS-WIN-CRT-RUNTIME-L1-1-0.DLL::__p___argc
                 00  00  00 
                 00  00
                             *************************************************************
                             *                 POINTER to EXTERNAL FUNCTION               
                             *************************************************************
                             undefined  _register_onexit_function ()
             undefined         AL:1           <RETURN>
                             60  _register_onexit_function  <<not bound>>
                             PTR__register_onexit_function_140003130         XREF[1]:     _register_onexit_function:140002
       140003130 c6  3c  00       addr       API-MS-WIN-CRT-RUNTIME-L1-1-0.DLL::_register_o
                 00  00  00 
                 00  00
                             *************************************************************
                             *                 POINTER to EXTERNAL FUNCTION               
                             *************************************************************
                             noreturn  void  __cdecl  _exit (int  _Code )
             void              <VOID>         <RETURN>
             int               ECX:4          _Code
                             35  _exit  <<not bound>>
                             PTR__exit_140003138                             XREF[1]:     _exit:14000204a   
       140003138 00  3c  00       addr       API-MS-WIN-CRT-RUNTIME-L1-1-0.DLL::_exit
                 00  00  00 
                 00  00
                             *************************************************************
                             *                 POINTER to EXTERNAL FUNCTION               
                             *************************************************************
                             noreturn  void  __cdecl  exit (int  _Code )
             void              <VOID>         <RETURN>
             int               ECX:4          _Code
                             85  exit  <<not bound>>
                             PTR_exit_140003140                              XREF[1]:     exit:140002044   
       140003140 f8  3b  00       addr       API-MS-WIN-CRT-RUNTIME-L1-1-0.DLL::exit
                 00  00  00 
                 00  00
                             *************************************************************
                             *                 POINTER to EXTERNAL FUNCTION               
                             *************************************************************
                             undefined  _initterm_e ()
             undefined         AL:1           <RETURN>
                             55  _initterm_e  <<not bound>>
                             PTR__initterm_e_140003148                       XREF[1]:     _initterm_e:14000203e   
       140003148 ea  3b  00       addr       API-MS-WIN-CRT-RUNTIME-L1-1-0.DLL::_initterm_e
                 00  00  00 
                 00  00
                             *************************************************************
                             *                 POINTER to EXTERNAL FUNCTION               
                             *************************************************************
                             undefined  _initterm ()
             undefined         AL:1           <RETURN>
                             54  _initterm  <<not bound>>
                             PTR__initterm_140003150                         XREF[1]:     _initterm:140002038   
       140003150 de  3b  00       addr       API-MS-WIN-CRT-RUNTIME-L1-1-0.DLL::_initterm
                 00  00  00 
                 00  00
                             *************************************************************
                             *                 POINTER to EXTERNAL FUNCTION               
                             *************************************************************
                             undefined  _get_initial_narrow_environment ()
             undefined         AL:1           <RETURN>
                             40  _get_initial_narrow_environment  <<not bound>>
                             PTR__get_initial_narrow_environment_140003158   XREF[1]:     _get_initial_narrow_environment:
       140003158 bc  3b  00       addr       API-MS-WIN-CRT-RUNTIME-L1-1-0.DLL::_get_initia
                 00  00  00 
                 00  00
                             *************************************************************
                             *                 POINTER to EXTERNAL FUNCTION               
                             *************************************************************
                             undefined  _initialize_narrow_environment ()
             undefined         AL:1           <RETURN>
                             51  _initialize_narrow_environment  <<not bound>>
                             PTR__initialize_narrow_environment_140003160    XREF[1]:     _initialize_narrow_environment:1
       140003160 9a  3b  00       addr       API-MS-WIN-CRT-RUNTIME-L1-1-0.DLL::_initialize
                 00  00  00 
                 00  00
                             *************************************************************
                             *                 POINTER to EXTERNAL FUNCTION               
                             *************************************************************
                             undefined  _configure_narrow_argv ()
             undefined         AL:1           <RETURN>
                             24  _configure_narrow_argv  <<not bound>>
                             PTR__configure_narrow_argv_140003168            XREF[1]:     _configure_narrow_argv:140002026
       140003168 80  3b  00       addr       API-MS-WIN-CRT-RUNTIME-L1-1-0.DLL::_configure_
                 00  00  00 
                 00  00
 
                             *************************************************************
                             *                 POINTER to EXTERNAL FUNCTION               
                             *************************************************************
                             errno_t  __cdecl  _set_fmode (int  _Mode )
             errno_t           EAX:4          <RETURN>
             int               ECX:4          _Mode
                             84  _set_fmode  <<not bound>>
                             PTR__set_fmode_140003178                        XREF[1]:     _set_fmode:140002050   
       140003178 08  3c  00       addr       API-MS-WIN-CRT-STDIO-L1-1-0.DLL::_set_fmode
                 00  00  00 
                 00  00
                             *************************************************************
                             *                 POINTER to EXTERNAL FUNCTION               
                             *************************************************************
                             undefined  __acrt_iob_func ()
             undefined         AL:1           <RETURN>
                             0  __acrt_iob_func  <<not bound>>
                             PTR___acrt_iob_func_140003180                   XREF[2]:     FUN_1400012e0:140001307 (R) , 
                                                                                          FUN_140001340:140001364 (R)   
       140003180 fc  3a  00       addr       API-MS-WIN-CRT-STDIO-L1-1-0.DLL::__acrt_iob_fu
                 00  00  00 
                 00  00
                             *************************************************************
                             *                 POINTER to EXTERNAL FUNCTION               
                             *************************************************************
                             undefined  __stdio_common_vfscanf ()
             undefined         AL:1           <RETURN>
                             6  __stdio_common_vfscanf  <<not bound>>
                             PTR___stdio_common_vfscanf_140003188            XREF[1]:     _vfprintf_l:140001239 (R)   
       140003188 30  3b  00       addr       API-MS-WIN-CRT-STDIO-L1-1-0.DLL::__stdio_commo
                 00  00  00 
                 00  00
                             *************************************************************
                             *                 POINTER to EXTERNAL FUNCTION               
                             *************************************************************
                             undefined  __stdio_common_vfprintf ()
             undefined         AL:1           <RETURN>
                             3  __stdio_common_vfprintf  <<not bound>>
                             PTR___stdio_common_vfprintf_140003190           XREF[1]:     _vfprintf_l:1400011e9 (R)   
       140003190 16  3b  00       addr       API-MS-WIN-CRT-STDIO-L1-1-0.DLL::__stdio_commo
                 00  00  00 
                 00  00
                             *************************************************************
                             *                 POINTER to EXTERNAL FUNCTION               
                             *************************************************************
                             int  __cdecl  puts (char *  _Str )
             int               EAX:4          <RETURN>
             char *            RCX:8          _Str
                             147  puts  <<not bound>>
                             PTR_puts_140003198                              XREF[2]:     FUN_140001250:1400012ae (R) , 
                                                                                          FUN_140001250:1400012bd (R)   
       140003198 0e  3b  00       addr       API-MS-WIN-CRT-STDIO-L1-1-0.DLL::puts
                 00  00  00 
                 00  00
                             *************************************************************
                             *                 POINTER to EXTERNAL FUNCTION               
                             *************************************************************
                             undefined  __p__commode ()
             undefined         AL:1           <RETURN>
                             1  __p__commode  <<not bound>>
                             PTR___p__commode_1400031a0                      XREF[1]:     __p__commode:140002080   
       1400031a0 9a  3c  00       addr       API-MS-WIN-CRT-STDIO-L1-1-0.DLL::__p__commode
                 00  00  00 
                 00  00

                             *************************************************************
                             *                 POINTER to EXTERNAL FUNCTION               
                             *************************************************************
                             size_t  __cdecl  strlen (char *  _Str )
             size_t            RAX:8          <RETURN>
             char *            RCX:8          _Str
                             139  strlen  <<not bound>>
                             PTR_strlen_1400031b0                            XREF[1]:     strlen:14000200e   
       1400031b0 f2  3a  00       addr       API-MS-WIN-CRT-STRING-L1-1-0.DLL::strlen
                 00  00  00 
                 00  00

                             PTR__guard_check_icall_1400031c0                XREF[1]:     140003370 (*)   
       1400031c0 68  1b  00       addr       _guard_check_icall
                 40  01  00 
                 00  00
                             PTR__guard_dispatch_icall_1400031c8             XREF[4]:     FUN_140001538:1400015fa (R) , 
                                                                                          FUN_140001dc0:140001de2 (R) , 
                                                                                          140001e1e (R) , 140003378 (*)   
       1400031c8 c0  20  00       addr       _guard_dispatch_icall
                 40  01  00 
                 00  00
                             DAT_1400031d0                                   XREF[1]:     FUN_140001538:1400015ad (*)   
       1400031d0 00              ??         00h
       1400031d1 00              ??         00h
       1400031d2 00              ??         00h
       1400031d3 00              ??         00h
       1400031d4 00              ??         00h
       1400031d5 00              ??         00h
       1400031d6 00              ??         00h
       1400031d7 00              ??         00h
       1400031d8 1c              ??         1Ch                                              ?  ->  14000151c
       1400031d9 15              ??         15h
       1400031da 00              ??         00h
       1400031db 40              ??         40h    @
       1400031dc 01              ??         01h
       1400031dd 00              ??         00h
       1400031de 00              ??         00h
       1400031df 00              ??         00h
                             DAT_1400031e0                                   XREF[1]:     FUN_140001538:1400015a6 (*)   
       1400031e0 00              ??         00h
       1400031e1 00              ??         00h
       1400031e2 00              ??         00h
       1400031e3 00              ??         00h
       1400031e4 00              ??         00h
       1400031e5 00              ??         00h
       1400031e6 00              ??         00h
       1400031e7 00              ??         00h
                             DAT_1400031e8                                   XREF[1]:     FUN_140001538:14000158c (*)   
       1400031e8 00              ??         00h
       1400031e9 00              ??         00h
       1400031ea 00              ??         00h
       1400031eb 00              ??         00h
       1400031ec 00              ??         00h
       1400031ed 00              ??         00h
       1400031ee 00              ??         00h
       1400031ef 00              ??         00h
       1400031f0 54  14  00       addr       FUN_140001454
                 40  01  00 
                 00  00
       1400031f8 0c  15  00       addr       FUN_14000150c
                 40  01  00 
                 00  00
                             DAT_140003200                                   XREF[1]:     FUN_140001538:140001585 (*)   
       140003200 00              ??         00h
       140003201 00              ??         00h
       140003202 00              ??         00h
       140003203 00              ??         00h
       140003204 00              ??         00h
       140003205 00              ??         00h
       140003206 00              ??         00h
       140003207 00              ??         00h
       140003208 00              ??         00h
       140003209 00              ??         00h
       14000320a 00              ??         00h
       14000320b 00              ??         00h
       14000320c 00              ??         00h
       14000320d 00              ??         00h
       14000320e 00              ??         00h
       14000320f 00              ??         00h
       140003210 00              ??         00h
       140003211 00              ??         00h
       140003212 00              ??         00h
       140003213 00              ??         00h
       140003214 00              ??         00h
       140003215 00              ??         00h
       140003216 00              ??         00h
       140003217 00              ??         00h
       140003218 00              ??         00h
       140003219 00              ??         00h
       14000321a 00              ??         00h
       14000321b 00              ??         00h
       14000321c 00              ??         00h
       14000321d 00              ??         00h
       14000321e 00              ??         00h
       14000321f 00              ??         00h
       140003220 00              ??         00h
       140003221 00              ??         00h
       140003222 00              ??         00h
       140003223 00              ??         00h
       140003224 00              ??         00h
       140003225 00              ??         00h
       140003226 00              ??         00h
       140003227 00              ??         00h
       140003228 00              ??         00h
       140003229 00              ??         00h
       14000322a 00              ??         00h
       14000322b 00              ??         00h
       14000322c 00              ??         00h
       14000322d 00              ??         00h
       14000322e 00              ??         00h
       14000322f 00              ??         00h
                             s_I_am_KEY_140003230                            XREF[2]:     FUN_1400010a0:1400010bf (*) , 
                                                                                          FUN_1400010a0:1400010d1 (R)   
       140003230 49  5f  61       ds         "I_am_KEY"
                 6d  5f  4b 
                 45  59  00
       140003239 00              ??         00h
       14000323a 00              ??         00h
       14000323b 00              ??         00h
       14000323c 00              ??         00h
       14000323d 00              ??         00h
       14000323e 00              ??         00h
       14000323f 00              ??         00h
                             s_Input_:_140003240                             XREF[1]:     FUN_140001250:14000127c (*)   
       140003240 49  6e  70       ds         "Input : "
                 75  74  20 
                 3a  20  00
       140003249 00              ??         00h
       14000324a 00              ??         00h
       14000324b 00              ??         00h
                             s_%256s_14000324c                               XREF[1]:     FUN_140001250:14000128d (*)   
       14000324c 25  32  35       ds         "%256s"
                 36  73  00
       140003252 00              ??         00h
       140003253 00              ??         00h
       140003254 00              ??         00h
       140003255 00              ??         00h
       140003256 00              ??         00h
       140003257 00              ??         00h
                             s_Correct_140003258                             XREF[1]:     FUN_140001250:1400012a7 (*)   
       140003258 43  6f  72       ds         "Correct"
                 72  65  63 
                 74  00
                             s_Wrong_140003260                               XREF[1]:     FUN_140001250:1400012b6 (*)   
       140003260 57  72  6f       ds         "Wrong"
                 6e  67  00
       140003266 00              ??         00h
       140003267 00              ??         00h
                             PTR_DAT_140003268                               XREF[1]:     __report_gsfailure:1400017bc (*)   
       140003268 70  41  00       addr       DAT_140004170
                 40  01  00 
                 00  00
       140003270 10  42  00       addr       DAT_140004210                                    = ??
                 40  01  00 
                 00  00
       140003278 00              ??         00h
       140003279 00              ??         00h
       14000327a 00              ??         00h
       14000327b 00              ??         00h
       14000327c 00              ??         00h
       14000327d 00              ??         00h
       14000327e 00              ??         00h
       14000327f 00              ??         00h
                             DAT_140003280                                   XREF[1]:     __scrt_initialize_onexit_tables:
       140003280 ff              ??         FFh
       140003281 ff              ??         FFh
       140003282 ff              ??         FFh
       140003283 ff              ??         FFh
       140003284 ff              ??         FFh
       140003285 ff              ??         FFh
       140003286 ff              ??         FFh
       140003287 ff              ??         FFh
       140003288 ff              ??         FFh
       140003289 ff              ??         FFh
       14000328a ff              ??         FFh
       14000328b ff              ??         FFh
       14000328c ff              ??         FFh
       14000328d ff              ??         FFh
       14000328e ff              ??         FFh
       14000328f ff              ??         FFh
                             IMAGE_DEBUG_DIRECTORY_140003290                 XREF[1]:     1400001b0 (*)   
       140003290 00  00  00       IMAGE_DE
                 00  1b  70 
                 81  5e  00 
       1400032ac 00  00  00       IMAGE_DE
                 00  1b  70 
                 81  5e  00 
       1400032c8 00  00  00       IMAGE_DE
                 00  1b  70 
                 81  5e  00 
       1400032e4 00              ??         00h
       1400032e5 00              ??         00h
       1400032e6 00              ??         00h
       1400032e7 00              ??         00h
       1400032e8 1b              ??         1Bh
       1400032e9 70              ??         70h    p
       1400032ea 81              ??         81h
       1400032eb 5e              ??         5Eh    ^
       1400032ec 00              ??         00h
       1400032ed 00              ??         00h
       1400032ee 00              ??         00h
       1400032ef 00              ??         00h
       1400032f0 0e              ??         0Eh
       1400032f1 00              ??         00h
       1400032f2 00              ??         00h
       1400032f3 00              ??         00h
       1400032f4 00              ??         00h
       1400032f5 00              ??         00h
       1400032f6 00              ??         00h
       1400032f7 00              ??         00h
       1400032f8 00              ??         00h
       1400032f9 00              ??         00h
       1400032fa 00              ??         00h
       1400032fb 00              ??         00h
       1400032fc 00              ??         00h
       1400032fd 00              ??         00h
       1400032fe 00              ??         00h
       1400032ff 00              ??         00h
                             IMAGE_LOAD_CONFIG_DIRECTORY64_140003300         XREF[1]:     1400001d0 (*)   
       140003300 08  01  00       IMAGE_LO                                                    = 00002B992DDFA232h
                 00  00  00                                                                   = 140001b68
                 00  00  00                                                                   = 1400020c0
       140003400 00              ??         00h
       140003401 00              ??         00h
       140003402 00              ??         00h
       140003403 00              ??         00h
       140003404 00              ??         00h
       140003405 00              ??         00h
       140003406 00              ??         00h
       140003407 00              ??         00h
                             *************************************************************
                             * .NET PDB Info                                              
                             *************************************************************
       140003408 52  53  44       DotNetPd
                 53  8a  d6 
                 d8  43  ac 
       140003463 00              ??         00h
       140003464 00              ??         00h
       140003465 00              ??         00h
       140003466 00              ??         00h
       140003467 00              ??         00h
       140003468 1d              ??         1Dh
       140003469 00              ??         00h
       14000346a 00              ??         00h
       14000346b 00              ??         00h
       14000346c 1d              ??         1Dh
       14000346d 00              ??         00h
       14000346e 00              ??         00h
       14000346f 00              ??         00h
       140003470 00              ??         00h
       140003471 00              ??         00h
       140003472 00              ??         00h
       140003473 00              ??         00h
       140003474 1c              ??         1Ch
       140003475 00              ??         00h
       140003476 00              ??         00h
       140003477 00              ??         00h
       140003478 47              ??         47h    G
       140003479 43              ??         43h    C
       14000347a 54              ??         54h    T
       14000347b 4c              ??         4Ch    L
       14000347c 00              ??         00h
       14000347d 10              ??         10h
       14000347e 00              ??         00h
       14000347f 00              ??         00h
       140003480 b0              ??         B0h
       140003481 10              ??         10h
       140003482 00              ??         00h
       140003483 00              ??         00h
       140003484 2e              ??         2Eh    .
       140003485 74              ??         74h    t
       140003486 65              ??         65h    e
       140003487 78              ??         78h    x
       140003488 74              ??         74h    t
       140003489 24              ??         24h    $
       14000348a 6d              ??         6Dh    m
       14000348b 6e              ??         6Eh    n
       14000348c 00              ??         00h
       14000348d 00              ??         00h
       14000348e 00              ??         00h
       14000348f 00              ??         00h
       140003490 b0              ??         B0h
       140003491 20              ??         20h     
       140003492 00              ??         00h
       140003493 00              ??         00h
       140003494 12              ??         12h
       140003495 00              ??         00h
       140003496 00              ??         00h
       140003497 00              ??         00h
       140003498 2e              ??         2Eh    .
       140003499 74              ??         74h    t
       14000349a 65              ??         65h    e
       14000349b 78              ??         78h    x
       14000349c 74              ??         74h    t
       14000349d 24              ??         24h    $
       14000349e 6d              ??         6Dh    m
       14000349f 6e              ??         6Eh    n
       1400034a0 24              ??         24h    $
       1400034a1 30              ??         30h    0
       1400034a2 30              ??         30h    0
       1400034a3 00              ??         00h
       1400034a4 c2              ??         C2h
       1400034a5 20              ??         20h     
       1400034a6 00              ??         00h
       1400034a7 00              ??         00h
       1400034a8 36              ??         36h    6
       1400034a9 00              ??         00h
       1400034aa 00              ??         00h
       1400034ab 00              ??         00h
       1400034ac 2e              ??         2Eh    .
       1400034ad 74              ??         74h    t
       1400034ae 65              ??         65h    e
       1400034af 78              ??         78h    x
       1400034b0 74              ??         74h    t
       1400034b1 24              ??         24h    $
       1400034b2 78              ??         78h    x
       1400034b3 00              ??         00h
       1400034b4 00              ??         00h
       1400034b5 30              ??         30h    0
       1400034b6 00              ??         00h
       1400034b7 00              ??         00h
       1400034b8 c0              ??         C0h
       1400034b9 01              ??         01h
       1400034ba 00              ??         00h
       1400034bb 00              ??         00h
       1400034bc 2e              ??         2Eh    .
       1400034bd 69              ??         69h    i
       1400034be 64              ??         64h    d
       1400034bf 61              ??         61h    a
       1400034c0 74              ??         74h    t
       1400034c1 61              ??         61h    a
       1400034c2 24              ??         24h    $
       1400034c3 35              ??         35h    5
       1400034c4 00              ??         00h
       1400034c5 00              ??         00h
       1400034c6 00              ??         00h
       1400034c7 00              ??         00h
       1400034c8 c0              ??         C0h
       1400034c9 31              ??         31h    1
       1400034ca 00              ??         00h
       1400034cb 00              ??         00h
       1400034cc 10              ??         10h
       1400034cd 00              ??         00h
       1400034ce 00              ??         00h
       1400034cf 00              ??         00h
       1400034d0 2e              ??         2Eh    .
       1400034d1 30              ??         30h    0
       1400034d2 30              ??         30h    0
       1400034d3 63              ??         63h    c
       1400034d4 66              ??         66h    f
       1400034d5 67              ??         67h    g
       1400034d6 00              ??         00h
       1400034d7 00              ??         00h
       1400034d8 d0              ??         D0h
       1400034d9 31              ??         31h    1
       1400034da 00              ??         00h
       1400034db 00              ??         00h
       1400034dc 08              ??         08h
       1400034dd 00              ??         00h
       1400034de 00              ??         00h
       1400034df 00              ??         00h
       1400034e0 2e              ??         2Eh    .
       1400034e1 43              ??         43h    C
       1400034e2 52              ??         52h    R
       1400034e3 54              ??         54h    T
       1400034e4 24              ??         24h    $
       1400034e5 58              ??         58h    X
       1400034e6 43              ??         43h    C
       1400034e7 41              ??         41h    A
       1400034e8 00              ??         00h
       1400034e9 00              ??         00h
       1400034ea 00              ??         00h
       1400034eb 00              ??         00h
       1400034ec d8              ??         D8h
       1400034ed 31              ??         31h    1
       1400034ee 00              ??         00h
       1400034ef 00              ??         00h
       1400034f0 08              ??         08h
       1400034f1 00              ??         00h
       1400034f2 00              ??         00h
       1400034f3 00              ??         00h
       1400034f4 2e              ??         2Eh    .
       1400034f5 43              ??         43h    C
       1400034f6 52              ??         52h    R
       1400034f7 54              ??         54h    T
       1400034f8 24              ??         24h    $
       1400034f9 58              ??         58h    X
       1400034fa 43              ??         43h    C
       1400034fb 41              ??         41h    A
       1400034fc 41              ??         41h    A
       1400034fd 00              ??         00h
       1400034fe 00              ??         00h
       1400034ff 00              ??         00h
       140003500 e0              ??         E0h
       140003501 31              ??         31h    1
       140003502 00              ??         00h
       140003503 00              ??         00h
       140003504 08              ??         08h
       140003505 00              ??         00h
       140003506 00              ??         00h
       140003507 00              ??         00h
       140003508 2e              ??         2Eh    .
       140003509 43              ??         43h    C
       14000350a 52              ??         52h    R
       14000350b 54              ??         54h    T
       14000350c 24              ??         24h    $
       14000350d 58              ??         58h    X
       14000350e 43              ??         43h    C
       14000350f 5a              ??         5Ah    Z
       140003510 00              ??         00h
       140003511 00              ??         00h
       140003512 00              ??         00h
       140003513 00              ??         00h
       140003514 e8              ??         E8h
       140003515 31              ??         31h    1
       140003516 00              ??         00h
       140003517 00              ??         00h
       140003518 08              ??         08h
       140003519 00              ??         00h
       14000351a 00              ??         00h
       14000351b 00              ??         00h
       14000351c 2e              ??         2Eh    .
       14000351d 43              ??         43h    C
       14000351e 52              ??         52h    R
       14000351f 54              ??         54h    T
       140003520 24              ??         24h    $
       140003521 58              ??         58h    X
       140003522 49              ??         49h    I
       140003523 41              ??         41h    A
       140003524 00              ??         00h
       140003525 00              ??         00h
       140003526 00              ??         00h
       140003527 00              ??         00h
       140003528 f0              ??         F0h
       140003529 31              ??         31h    1
       14000352a 00              ??         00h
       14000352b 00              ??         00h
       14000352c 08              ??         08h
       14000352d 00              ??         00h
       14000352e 00              ??         00h
       14000352f 00              ??         00h
       140003530 2e              ??         2Eh    .
       140003531 43              ??         43h    C
       140003532 52              ??         52h    R
       140003533 54              ??         54h    T
       140003534 24              ??         24h    $
       140003535 58              ??         58h    X
       140003536 49              ??         49h    I
       140003537 41              ??         41h    A
       140003538 41              ??         41h    A
       140003539 00              ??         00h
       14000353a 00              ??         00h
       14000353b 00              ??         00h
       14000353c f8              ??         F8h
       14000353d 31              ??         31h    1
       14000353e 00              ??         00h
       14000353f 00              ??         00h
       140003540 08              ??         08h
       140003541 00              ??         00h
       140003542 00              ??         00h
       140003543 00              ??         00h
       140003544 2e              ??         2Eh    .
       140003545 43              ??         43h    C
       140003546 52              ??         52h    R
       140003547 54              ??         54h    T
       140003548 24              ??         24h    $
       140003549 58              ??         58h    X
       14000354a 49              ??         49h    I
       14000354b 41              ??         41h    A
       14000354c 43              ??         43h    C
       14000354d 00              ??         00h
       14000354e 00              ??         00h
       14000354f 00              ??         00h
       140003550 00              ??         00h
       140003551 32              ??         32h    2
       140003552 00              ??         00h
       140003553 00              ??         00h
       140003554 08              ??         08h
       140003555 00              ??         00h
       140003556 00              ??         00h
       140003557 00              ??         00h
       140003558 2e              ??         2Eh    .
       140003559 43              ??         43h    C
       14000355a 52              ??         52h    R
       14000355b 54              ??         54h    T
       14000355c 24              ??         24h    $
       14000355d 58              ??         58h    X
       14000355e 49              ??         49h    I
       14000355f 5a              ??         5Ah    Z
       140003560 00              ??         00h
       140003561 00              ??         00h
       140003562 00              ??         00h
       140003563 00              ??         00h
       140003564 08              ??         08h
       140003565 32              ??         32h    2
       140003566 00              ??         00h
       140003567 00              ??         00h
       140003568 08              ??         08h
       140003569 00              ??         00h
       14000356a 00              ??         00h
       14000356b 00              ??         00h
       14000356c 2e              ??         2Eh    .
       14000356d 43              ??         43h    C
       14000356e 52              ??         52h    R
       14000356f 54              ??         54h    T
       140003570 24              ??         24h    $
       140003571 58              ??         58h    X
       140003572 50              ??         50h    P
       140003573 41              ??         41h    A
       140003574 00              ??         00h
       140003575 00              ??         00h
       140003576 00              ??         00h
       140003577 00              ??         00h
       140003578 10              ??         10h
       140003579 32              ??         32h    2
       14000357a 00              ??         00h
       14000357b 00              ??         00h
       14000357c 08              ??         08h
       14000357d 00              ??         00h
       14000357e 00              ??         00h
       14000357f 00              ??         00h
       140003580 2e              ??         2Eh    .
       140003581 43              ??         43h    C
       140003582 52              ??         52h    R
       140003583 54              ??         54h    T
       140003584 24              ??         24h    $
       140003585 58              ??         58h    X
       140003586 50              ??         50h    P
       140003587 5a              ??         5Ah    Z
       140003588 00              ??         00h
       140003589 00              ??         00h
       14000358a 00              ??         00h
       14000358b 00              ??         00h
       14000358c 18              ??         18h
       14000358d 32              ??         32h    2
       14000358e 00              ??         00h
       14000358f 00              ??         00h
       140003590 08              ??         08h
       140003591 00              ??         00h
       140003592 00              ??         00h
       140003593 00              ??         00h
       140003594 2e              ??         2Eh    .
       140003595 43              ??         43h    C
       140003596 52              ??         52h    R
       140003597 54              ??         54h    T
       140003598 24              ??         24h    $
       140003599 58              ??         58h    X
       14000359a 54              ??         54h    T
       14000359b 41              ??         41h    A
       14000359c 00              ??         00h
       14000359d 00              ??         00h
       14000359e 00              ??         00h
       14000359f 00              ??         00h
       1400035a0 20              ??         20h     
       1400035a1 32              ??         32h    2
       1400035a2 00              ??         00h
       1400035a3 00              ??         00h
       1400035a4 10              ??         10h
       1400035a5 00              ??         00h
       1400035a6 00              ??         00h
       1400035a7 00              ??         00h
       1400035a8 2e              ??         2Eh    .
       1400035a9 43              ??         43h    C
       1400035aa 52              ??         52h    R
       1400035ab 54              ??         54h    T
       1400035ac 24              ??         24h    $
       1400035ad 58              ??         58h    X
       1400035ae 54              ??         54h    T
       1400035af 5a              ??         5Ah    Z
       1400035b0 00              ??         00h
       1400035b1 00              ??         00h
       1400035b2 00              ??         00h
       1400035b3 00              ??         00h
       1400035b4 30              ??         30h    0
       1400035b5 32              ??         32h    2
       1400035b6 00              ??         00h
       1400035b7 00              ??         00h
       1400035b8 d8              ??         D8h
       1400035b9 01              ??         01h
       1400035ba 00              ??         00h
       1400035bb 00              ??         00h
       1400035bc 2e  72  64       ds         ".rdata"
                 61  74  61 
                 00  00
       1400035c4 08              ??         08h
       1400035c5 34              ??         34h    4
       1400035c6 00              ??         00h
       1400035c7 00              ??         00h
       1400035c8 e0              ??         E0h
       1400035c9 02              ??         02h
       1400035ca 00              ??         00h
       1400035cb 00              ??         00h
       1400035cc 2e              ??         2Eh    .
       1400035cd 72              ??         72h    r
       1400035ce 64              ??         64h    d
       1400035cf 61              ??         61h    a
       1400035d0 74              ??         74h    t
       1400035d1 61              ??         61h    a
       1400035d2 24              ??         24h    $
       1400035d3 7a              ??         7Ah    z
       1400035d4 7a              ??         7Ah    z
       1400035d5 7a              ??         7Ah    z
       1400035d6 64              ??         64h    d
       1400035d7 62              ??         62h    b
       1400035d8 67              ??         67h    g
       1400035d9 00              ??         00h
       1400035da 00              ??         00h
       1400035db 00              ??         00h
       1400035dc e8              ??         E8h
       1400035dd 36              ??         36h    6
       1400035de 00              ??         00h
       1400035df 00              ??         00h
       1400035e0 08              ??         08h
       1400035e1 00              ??         00h
       1400035e2 00              ??         00h
       1400035e3 00              ??         00h
       1400035e4 2e              ??         2Eh    .
       1400035e5 72              ??         72h    r
       1400035e6 74              ??         74h    t
       1400035e7 63              ??         63h    c
       1400035e8 24              ??         24h    $
       1400035e9 49              ??         49h    I
       1400035ea 41              ??         41h    A
       1400035eb 41              ??         41h    A
       1400035ec 00              ??         00h
       1400035ed 00              ??         00h
       1400035ee 00              ??         00h
       1400035ef 00              ??         00h
       1400035f0 f0              ??         F0h
       1400035f1 36              ??         36h    6
       1400035f2 00              ??         00h
       1400035f3 00              ??         00h
       1400035f4 08              ??         08h
       1400035f5 00              ??         00h
       1400035f6 00              ??         00h
       1400035f7 00              ??         00h
       1400035f8 2e              ??         2Eh    .
       1400035f9 72              ??         72h    r
       1400035fa 74              ??         74h    t
       1400035fb 63              ??         63h    c
       1400035fc 24              ??         24h    $
       1400035fd 49              ??         49h    I
       1400035fe 5a              ??         5Ah    Z
       1400035ff 5a              ??         5Ah    Z
       140003600 00              ??         00h
       140003601 00              ??         00h
       140003602 00              ??         00h
       140003603 00              ??         00h
       140003604 f8              ??         F8h
       140003605 36              ??         36h    6
       140003606 00              ??         00h
       140003607 00              ??         00h
       140003608 08              ??         08h
       140003609 00              ??         00h
       14000360a 00              ??         00h
       14000360b 00              ??         00h
       14000360c 2e              ??         2Eh    .
       14000360d 72              ??         72h    r
       14000360e 74              ??         74h    t
       14000360f 63              ??         63h    c
       140003610 24              ??         24h    $
       140003611 54              ??         54h    T
       140003612 41              ??         41h    A
       140003613 41              ??         41h    A
       140003614 00              ??         00h
       140003615 00              ??         00h
       140003616 00              ??         00h
       140003617 00              ??         00h
       140003618 00              ??         00h
       140003619 37              ??         37h    7
       14000361a 00              ??         00h
       14000361b 00              ??         00h
       14000361c 08              ??         08h
       14000361d 00              ??         00h
       14000361e 00              ??         00h
       14000361f 00              ??         00h
       140003620 2e              ??         2Eh    .
       140003621 72              ??         72h    r
       140003622 74              ??         74h    t
       140003623 63              ??         63h    c
       140003624 24              ??         24h    $
       140003625 54              ??         54h    T
       140003626 5a              ??         5Ah    Z
       140003627 5a              ??         5Ah    Z
       140003628 00              ??         00h
       140003629 00              ??         00h
       14000362a 00              ??         00h
       14000362b 00              ??         00h
       14000362c 08              ??         08h
       14000362d 37              ??         37h    7
       14000362e 00              ??         00h
       14000362f 00              ??         00h
       140003630 04              ??         04h
       140003631 01              ??         01h
       140003632 00              ??         00h
       140003633 00              ??         00h
       140003634 2e              ??         2Eh    .
       140003635 78              ??         78h    x
       140003636 64              ??         64h    d
       140003637 61              ??         61h    a
       140003638 74              ??         74h    t
       140003639 61              ??         61h    a
       14000363a 00              ??         00h
       14000363b 00              ??         00h
       14000363c 0c              ??         0Ch
       14000363d 38              ??         38h    8
       14000363e 00              ??         00h
       14000363f 00              ??         00h
       140003640 a0              ??         A0h
       140003641 00              ??         00h
       140003642 00              ??         00h
       140003643 00              ??         00h
       140003644 2e              ??         2Eh    .
       140003645 69              ??         69h    i
       140003646 64              ??         64h    d
       140003647 61              ??         61h    a
       140003648 74              ??         74h    t
       140003649 61              ??         61h    a
       14000364a 24              ??         24h    $
       14000364b 32              ??         32h    2
       14000364c 00              ??         00h
       14000364d 00              ??         00h
       14000364e 00              ??         00h
       14000364f 00              ??         00h
       140003650 ac              ??         ACh
       140003651 38              ??         38h    8
       140003652 00              ??         00h
       140003653 00              ??         00h
       140003654 14              ??         14h
       140003655 00              ??         00h
       140003656 00              ??         00h
       140003657 00              ??         00h
       140003658 2e              ??         2Eh    .
       140003659 69              ??         69h    i
       14000365a 64              ??         64h    d
       14000365b 61              ??         61h    a
       14000365c 74              ??         74h    t
       14000365d 61              ??         61h    a
       14000365e 24              ??         24h    $
       14000365f 33              ??         33h    3
       140003660 00              ??         00h
       140003661 00              ??         00h
       140003662 00              ??         00h
       140003663 00              ??         00h
       140003664 c0              ??         C0h
       140003665 38              ??         38h    8
       140003666 00              ??         00h
       140003667 00              ??         00h
       140003668 c0              ??         C0h
       140003669 01              ??         01h
       14000366a 00              ??         00h
       14000366b 00              ??         00h
       14000366c 2e              ??         2Eh    .
       14000366d 69              ??         69h    i
       14000366e 64              ??         64h    d
       14000366f 61              ??         61h    a
       140003670 74              ??         74h    t
       140003671 61              ??         61h    a
       140003672 24              ??         24h    $
       140003673 34              ??         34h    4
       140003674 00              ??         00h
       140003675 00              ??         00h
       140003676 00              ??         00h
       140003677 00              ??         00h
       140003678 80              ??         80h
       140003679 3a              ??         3Ah    :
       14000367a 00              ??         00h
       14000367b 00              ??         00h
       14000367c ae              ??         AEh
       14000367d 04              ??         04h
       14000367e 00              ??         00h
       14000367f 00              ??         00h
       140003680 2e              ??         2Eh    .
       140003681 69              ??         69h    i
       140003682 64              ??         64h    d
       140003683 61              ??         61h    a
       140003684 74              ??         74h    t
       140003685 61              ??         61h    a
       140003686 24              ??         24h    $
       140003687 36              ??         36h    6
       140003688 00              ??         00h
       140003689 00              ??         00h
       14000368a 00              ??         00h
       14000368b 00              ??         00h
       14000368c 00              ??         00h
       14000368d 40              ??         40h    @
       14000368e 00              ??         00h
       14000368f 00              ??         00h
       140003690 60              ??         60h    `
       140003691 01              ??         01h
       140003692 00              ??         00h
       140003693 00              ??         00h
       140003694 2e  64  61       ds         ".data"
                 74  61  00 
                 00  00
       14000369c 60              ??         60h    `
       14000369d 41              ??         41h    A
       14000369e 00              ??         00h
       14000369f 00              ??         00h
       1400036a0 f8              ??         F8h
       1400036a1 05              ??         05h
       1400036a2 00              ??         00h
       1400036a3 00              ??         00h
       1400036a4 2e              ??         2Eh    .
       1400036a5 62              ??         62h    b
       1400036a6 73              ??         73h    s
       1400036a7 73              ??         73h    s
       1400036a8 00              ??         00h
       1400036a9 00              ??         00h
       1400036aa 00              ??         00h
       1400036ab 00              ??         00h
       1400036ac 00              ??         00h
       1400036ad 50              ??         50h    P
       1400036ae 00              ??         00h
       1400036af 00              ??         00h
       1400036b0 bc              ??         BCh
       1400036b1 01              ??         01h
       1400036b2 00              ??         00h
       1400036b3 00              ??         00h
       1400036b4 2e  70  64       ds         ".pdata"
                 61  74  61 
                 00  00
       1400036bc 00              ??         00h
       1400036bd 60              ??         60h    `
       1400036be 00              ??         00h
       1400036bf 00              ??         00h
       1400036c0 60              ??         60h    `
       1400036c1 00              ??         00h
       1400036c2 00              ??         00h
       1400036c3 00              ??         00h
       1400036c4 2e              ??         2Eh    .
       1400036c5 72              ??         72h    r
       1400036c6 73              ??         73h    s
       1400036c7 72              ??         72h    r
       1400036c8 63              ??         63h    c
       1400036c9 24              ??         24h    $
       1400036ca 30              ??         30h    0
       1400036cb 31              ??         31h    1
       1400036cc 00              ??         00h
       1400036cd 00              ??         00h
       1400036ce 00              ??         00h
       1400036cf 00              ??         00h
       1400036d0 60              ??         60h    `
       1400036d1 60              ??         60h    `
       1400036d2 00              ??         00h
       1400036d3 00              ??         00h
       1400036d4 80              ??         80h
       1400036d5 01              ??         01h
       1400036d6 00              ??         00h
       1400036d7 00              ??         00h
       1400036d8 2e              ??         2Eh    .
       1400036d9 72              ??         72h    r
       1400036da 73              ??         73h    s
       1400036db 72              ??         72h    r
       1400036dc 63              ??         63h    c
       1400036dd 24              ??         24h    $
       1400036de 30              ??         30h    0
       1400036df 32              ??         32h    2
       1400036e0 00              ??         00h
       1400036e1 00              ??         00h
       1400036e2 00              ??         00h
       1400036e3 00              ??         00h
       1400036e4 00              ??         00h
       1400036e5 00              ??         00h
       1400036e6 00              ??         00h
       1400036e7 00              ??         00h
       1400036e8 00              ??         00h
       1400036e9 00              ??         00h
       1400036ea 00              ??         00h
       1400036eb 00              ??         00h
       1400036ec 00              ??         00h
       1400036ed 00              ??         00h
       1400036ee 00              ??         00h
       1400036ef 00              ??         00h
                             DAT_1400036f0                                   XREF[3]:     FUN_140001dc0:140001dca (*) , 
                                                                                          FUN_140001dc0:140001dd1 (*) , 
                                                                                          FUN_140001dc0:140001dda (R)   
       1400036f0 00  00  00       undefine   0000000000000000h
                 00  00  00 
                 00  00
       1400036f8 00              ??         00h
       1400036f9 00              ??         00h
       1400036fa 00              ??         00h
       1400036fb 00              ??         00h
       1400036fc 00              ??         00h
       1400036fd 00              ??         00h
       1400036fe 00              ??         00h
       1400036ff 00              ??         00h
                             DAT_140003700                                   XREF[3]:     140001e06 (*) , 140001e0d (*) , 
                                                                                          140001e16 (R)   
       140003700 00  00  00       undefine   0000000000000000h
                 00  00  00 
                 00  00
                             UNWIND_INFO_140003708                           XREF[4]:     140005020 (*) , 14000502c (*) , 
                                                                                          140005044 (*) , 140005050 (*)   
       140003708 01  18  01       UNWIND_I
                 00  18  62
       14000370e 00              ??         00h
       14000370f 00              ??         00h
                             UNWIND_INFO_140003710                           XREF[1]:     140005014 (*)   
       140003710 19  1a  03       UNWIND_I
                 00  0b  62 
                 07  70  06 
                             Zero-length Component: ulong[0] UNWIND_INFO_140003710.Excepti
       140003720 20              ??         20h     
       140003721 00              ??         00h
       140003722 00              ??         00h
       140003723 00              ??         00h
                             UNWIND_INFO_140003724                           XREF[2]:     140005008 (*) , 1400050c8 (*)   
       140003724 01  09  01       UNWIND_I
                 00  09  62
       14000372a 00              ??         00h
       14000372b 00              ??         00h
                             UNWIND_INFO_14000372c                           XREF[1]:     140005038 (*)   
       14000372c 19  1b  03       UNWIND_I
                 00  09  01 
                 26  00  02 
                             Zero-length Component: ulong[0] UNWIND_INFO_14000372c.Excepti
       14000373c 20              ??         20h     
       14000373d 01              ??         01h
       14000373e 00              ??         00h
       14000373f 00              ??         00h
                             UNWIND_INFO_140003740                           XREF[1]:     140005068 (*)   
       140003740 01  02  01       UNWIND_I
                 00  02  30
       140003746 00              ??         00h
       140003747 00              ??         00h
                             UNWIND_INFO_140003748                           XREF[8]:     14000505c (*) , 14000508c (*) , 
                                                                                          140005098 (*) , 1400050b0 (*) , 
                                                                                          1400050e0 (*) , 140005134 (*) , 
                                                                                          14000514c (*) , 140005164 (*)   
       140003748 01  04  01       UNWIND_I
                 00  04  42
       14000374e 00              ??         00h
       14000374f 00              ??         00h
                             UNWIND_INFO_140003750                           XREF[1]:     140005074 (*)   
       140003750 01  00  00  00    UNWIND_I
                             UNWIND_INFO_140003754                           XREF[7]:     140005080 (*) , 1400050bc (*) , 
                                                                                          1400050ec (*) , 1400050f8 (*) , 
                                                                                          140005110 (*) , 14000511c (*) , 
                                                                                          140005128 (*)   
       140003754 01  06  02       UNWIND_I
                 00  06  32 
                 02  30
                             UNWIND_INFO_14000375c                           XREF[1]:     1400050a4 (*)   
       14000375c 09  0f  06       UNWIND_I
                 00  0f  64 
                 09  00  0f 
       140003770 02              ??         02h
       140003771 00              ??         00h
       140003772 00              ??         00h
       140003773 00              ??         00h
       140003774 61              ??         61h    a
       140003775 15              ??         15h
       140003776 00              ??         00h
       140003777 00              ??         00h
       140003778 66              ??         66h    f
       140003779 16              ??         16h
       14000377a 00              ??         00h
       14000377b 00              ??         00h
       14000377c c2              ??         C2h
       14000377d 20              ??         20h     
       14000377e 00              ??         00h
       14000377f 00              ??         00h
       140003780 66              ??         66h    f
       140003781 16              ??         16h
       140003782 00              ??         00h
       140003783 00              ??         00h
       140003784 9a              ??         9Ah
       140003785 16              ??         16h
       140003786 00              ??         00h
       140003787 00              ??         00h
       140003788 ac              ??         ACh
       140003789 16              ??         16h
       14000378a 00              ??         00h
       14000378b 00              ??         00h
       14000378c c2              ??         C2h
       14000378d 20              ??         20h     
       14000378e 00              ??         00h
       14000378f 00              ??         00h
       140003790 66              ??         66h    f
       140003791 16              ??         16h
       140003792 00              ??         00h
       140003793 00              ??         00h
                             UNWIND_INFO_140003794                           XREF[1]:     1400051ac (*)   
       140003794 01  06  02       UNWIND_I
                 00  06  32 
                 02  50
                             UNWIND_INFO_14000379c                           XREF[1]:     1400050d4 (*)   
       14000379c 01  08  04       UNWIND_I
                 00  08  72 
                 04  70  03 
                             UNWIND_INFO_1400037a8                           XREF[1]:     140005104 (*)   
       1400037a8 09  04  01       UNWIND_I
                 00  04  22 
                 00  00  f6 
       1400037b4 01              ??         01h
       1400037b5 00              ??         00h
       1400037b6 00              ??         00h
       1400037b7 00              ??         00h
       1400037b8 5f              ??         5Fh    _
       1400037b9 19              ??         19h
       1400037ba 00              ??         00h
       1400037bb 00              ??         00h
       1400037bc e9              ??         E9h
       1400037bd 19              ??         19h
       1400037be 00              ??         00h
       1400037bf 00              ??         00h
       1400037c0 e0              ??         E0h
       1400037c1 20              ??         20h     
       1400037c2 00              ??         00h
       1400037c3 00              ??         00h
       1400037c4 e9              ??         E9h
       1400037c5 19              ??         19h
       1400037c6 00              ??         00h
       1400037c7 00              ??         00h
                             UNWIND_INFO_1400037c8                           XREF[1]:     1400051b8 (*)   
       1400037c8 01  02  01       UNWIND_I
                 00  02  50
       1400037ce 00              ??         00h
       1400037cf 00              ??         00h
                             UNWIND_INFO_1400037d0                           XREF[1]:     140005140 (*)   
       1400037d0 01  0d  04       UNWIND_I
                 00  0d  34 
                 09  00  0d 
                             UNWIND_INFO_1400037dc                           XREF[1]:     140005158 (*)   
       1400037dc 01  15  05       UNWIND_I
                 00  15  34 
                 ba  00  15 
       1400037ea 00              ??         00h
       1400037eb 00              ??         00h
                             UNWIND_INFO_1400037ec                           XREF[3]:     140005170 (*) , 14000517c (*) , 
                                                                                          140005188 (*)   
       1400037ec 01  0a  04       UNWIND_I
                 00  0a  34 
                 06  00  0a 
                             UNWIND_INFO_1400037f8                           XREF[1]:     140005194 (*)   
       1400037f8 01  0f  06       UNWIND_I
                 00  0f  64 
                 06  00  0f 
                             UNWIND_INFO_140003808                           XREF[1]:     1400051a0 (*)   
       140003808 01  00  00  00    UNWIND_I
                             *************************************************************
                             * IMAGE_IMPORT_DESCRIPTOR                                    
                             *************************************************************
                             DWORD_14000380c                                 XREF[1]:     140000188 (*)   
       14000380c 40  39  00  00    ddw        3940h
       140003810 00  00  00  00    ddw        0h
       140003814 00  00  00  00    ddw        0h
       140003818 e0  3a  00  00    ddw        3AE0h
       14000381c 80  30  00  00    ddw        3080h
                             *************************************************************
                             * IMAGE_IMPORT_DESCRIPTOR                                    
                             *************************************************************
       140003820 70  3a  00  00    ddw        3A70h
       140003824 00  00  00  00    ddw        0h
       140003828 00  00  00  00    ddw        0h
       14000382c fc  3c  00  00    ddw        3CFCh
       140003830 b0  31  00  00    ddw        31B0h
                             *************************************************************
                             * IMAGE_IMPORT_DESCRIPTOR                                    
                             *************************************************************
       140003834 38  3a  00  00    ddw        3A38h
       140003838 00  00  00  00    ddw        0h
       14000383c 00  00  00  00    ddw        0h
       140003840 1e  3d  00  00    ddw        3D1Eh
       140003844 78  31  00  00    ddw        3178h
                             *************************************************************
                             * IMAGE_IMPORT_DESCRIPTOR                                    
                             *************************************************************
       140003848 a0  39  00  00    ddw        39A0h
       14000384c 00  00  00  00    ddw        0h
       140003850 00  00  00  00    ddw        0h
       140003854 3e  3d  00  00    ddw        3D3Eh
       140003858 e0  30  00  00    ddw        30E0h
                             *************************************************************
                             * IMAGE_IMPORT_DESCRIPTOR                                    
                             *************************************************************
       14000385c 90  39  00  00    ddw        3990h
       140003860 00  00  00  00    ddw        0h
       140003864 00  00  00  00    ddw        0h
       140003868 60  3d  00  00    ddw        3D60h
       14000386c d0  30  00  00    ddw        30D0h
                             *************************************************************
                             * IMAGE_IMPORT_DESCRIPTOR                                    
                             *************************************************************
       140003870 80  39  00  00    ddw        3980h
       140003874 00  00  00  00    ddw        0h
       140003878 00  00  00  00    ddw        0h
       14000387c 80  3d  00  00    ddw        3D80h
       140003880 c0  30  00  00    ddw        30C0h
                             *************************************************************
                             * IMAGE_IMPORT_DESCRIPTOR                                    
                             *************************************************************
       140003884 70  39  00  00    ddw        3970h
       140003888 00  00  00  00    ddw        0h
       14000388c 00  00  00  00    ddw        0h
       140003890 a2  3d  00  00    ddw        3DA2h
       140003894 b0  30  00  00    ddw        30B0h
                             *************************************************************
                             * IMAGE_IMPORT_DESCRIPTOR                                    
                             *************************************************************
       140003898 c0  38  00  00    ddw        38C0h
       14000389c 00  00  00  00    ddw        0h
       1400038a0 00  00  00  00    ddw        0h
       1400038a4 20  3f  00  00    ddw        3F20h
       1400038a8 00  30  00  00    ddw        3000h
       1400038ac 00              ??         00h
       1400038ad 00              ??         00h
       1400038ae 00              ??         00h
       1400038af 00              ??         00h
       1400038b0 00              ??         00h
       1400038b1 00              ??         00h
       1400038b2 00              ??         00h
       1400038b3 00              ??         00h
       1400038b4 00              ??         00h
       1400038b5 00              ??         00h
       1400038b6 00              ??         00h
       1400038b7 00              ??         00h
       1400038b8 00              ??         00h
       1400038b9 00              ??         00h
       1400038ba 00              ??         00h
       1400038bb 00              ??         00h
       1400038bc 00              ??         00h
       1400038bd 00              ??         00h
       1400038be 00              ??         00h
       1400038bf 00              ??         00h
       1400038c0 b2  3e  00       dq         3EB2h                                            IMAGE_THUNK_DATA64
                 00  00  00 
                 00  00
       1400038c8 d6  3d  00       dq         3DD6h                                            IMAGE_THUNK_DATA64
                 00  00  00 
                 00  00
       1400038d0 f0  3d  00       dq         3DF0h                                            IMAGE_THUNK_DATA64
                 00  00  00 
                 00  00
       1400038d8 04  3e  00       dq         3E04h                                            IMAGE_THUNK_DATA64
                 00  00  00 
                 00  00
       1400038e0 20  3e  00       dq         3E20h                                            IMAGE_THUNK_DATA64
                 00  00  00 
                 00  00
       1400038e8 3e  3e  00       dq         3E3Eh                                            IMAGE_THUNK_DATA64
                 00  00  00 
                 00  00
       1400038f0 0c  3f  00       dq         3F0Ch                                            IMAGE_THUNK_DATA64
                 00  00  00 
                 00  00
       1400038f8 f8  3e  00       dq         3EF8h                                            IMAGE_THUNK_DATA64
                 00  00  00 
                 00  00
       140003900 e2  3e  00       dq         3EE2h                                            IMAGE_THUNK_DATA64
                 00  00  00 
                 00  00
       140003908 c8  3e  00       dq         3EC8h                                            IMAGE_THUNK_DATA64
                 00  00  00 
                 00  00
       140003910 c2  3d  00       dq         3DC2h                                            IMAGE_THUNK_DATA64
                 00  00  00 
                 00  00
       140003918 9c  3e  00       dq         3E9Ch                                            IMAGE_THUNK_DATA64
                 00  00  00 
                 00  00
       140003920 82  3e  00       dq         3E82h                                            IMAGE_THUNK_DATA64
                 00  00  00 
                 00  00
       140003928 66  3e  00       dq         3E66h                                            IMAGE_THUNK_DATA64
                 00  00  00 
                 00  00
       140003930 52  3e  00       dq         3E52h                                            IMAGE_THUNK_DATA64
                 00  00  00 
                 00  00
       140003938 00              ??         00h
       140003939 00              ??         00h
       14000393a 00              ??         00h
       14000393b 00              ??         00h
       14000393c 00              ??         00h
       14000393d 00              ??         00h
       14000393e 00              ??         00h
       14000393f 00              ??         00h
       140003940 a2  3a  00       dq         3AA2h                                            IMAGE_THUNK_DATA64
                 00  00  00 
                 00  00
       140003948 8a  3a  00       dq         3A8Ah                                            IMAGE_THUNK_DATA64
                 00  00  00 
                 00  00
       140003950 b8  3a  00       dq         3AB8h                                            IMAGE_THUNK_DATA64
                 00  00  00 
                 00  00
       140003958 d6  3a  00       dq         3AD6h                                            IMAGE_THUNK_DATA64
                 00  00  00 
                 00  00
       140003960 80  3a  00       dq         3A80h                                            IMAGE_THUNK_DATA64
                 00  00  00 
                 00  00
       140003968 00              ??         00h
       140003969 00              ??         00h
       14000396a 00              ??         00h
       14000396b 00              ??         00h
       14000396c 00              ??         00h
       14000396d 00              ??         00h
       14000396e 00              ??         00h
       14000396f 00              ??         00h
       140003970 8a  3c  00       dq         3C8Ah                                            IMAGE_THUNK_DATA64
                 00  00  00 
                 00  00
       140003978 00              ??         00h
       140003979 00              ??         00h
       14000397a 00              ??         00h
       14000397b 00              ??         00h
       14000397c 00              ??         00h
       14000397d 00              ??         00h
       14000397e 00              ??         00h
       14000397f 00              ??         00h
       140003980 74  3c  00       dq         3C74h                                            IMAGE_THUNK_DATA64
                 00  00  00 
                 00  00
       140003988 00              ??         00h
       140003989 00              ??         00h
       14000398a 00              ??         00h
       14000398b 00              ??         00h
       14000398c 00              ??         00h
       14000398d 00              ??         00h
       14000398e 00              ??         00h
       14000398f 00              ??         00h
       140003990 6c  3b  00       dq         3B6Ch                                            IMAGE_THUNK_DATA64
                 00  00  00 
                 00  00
       140003998 00              ??         00h
       140003999 00              ??         00h
       14000399a 00              ??         00h
       14000399b 00              ??         00h
       14000399c 00              ??         00h
       14000399d 00              ??         00h
       14000399e 00              ??         00h
       14000399f 00              ??         00h
       1400039a0 32  3c  00       dq         3C32h                                            IMAGE_THUNK_DATA64
                 00  00  00 
                 00  00
       1400039a8 aa  3c  00       dq         3CAAh                                            IMAGE_THUNK_DATA64
                 00  00  00 
                 00  00
       1400039b0 24  3c  00       dq         3C24h                                            IMAGE_THUNK_DATA64
                 00  00  00 
                 00  00
       1400039b8 3c  3c  00       dq         3C3Ch                                            IMAGE_THUNK_DATA64
                 00  00  00 
                 00  00
       1400039c0 e2  3c  00       dq         3CE2h                                            IMAGE_THUNK_DATA64
                 00  00  00 
                 00  00
       1400039c8 f0  3c  00       dq         3CF0h                                            IMAGE_THUNK_DATA64
                 00  00  00 
                 00  00
       1400039d0 4a  3b  00       dq         3B4Ah                                            IMAGE_THUNK_DATA64
                 00  00  00 
                 00  00
       1400039d8 5c  3b  00       dq         3B5Ch                                            IMAGE_THUNK_DATA64
                 00  00  00 
                 00  00
       1400039e0 46  3c  00       dq         3C46h                                            IMAGE_THUNK_DATA64
                 00  00  00 
                 00  00
       1400039e8 16  3c  00       dq         3C16h                                            IMAGE_THUNK_DATA64
                 00  00  00 
                 00  00
       1400039f0 c6  3c  00       dq         3CC6h                                            IMAGE_THUNK_DATA64
                 00  00  00 
                 00  00
       1400039f8 00  3c  00       dq         3C00h                                            IMAGE_THUNK_DATA64
                 00  00  00 
                 00  00
       140003a00 f8  3b  00       dq         3BF8h                                            IMAGE_THUNK_DATA64
                 00  00  00 
                 00  00
       140003a08 ea  3b  00       dq         3BEAh                                            IMAGE_THUNK_DATA64
                 00  00  00 
                 00  00
       140003a10 de  3b  00       dq         3BDEh                                            IMAGE_THUNK_DATA64
                 00  00  00 
                 00  00
       140003a18 bc  3b  00       dq         3BBCh                                            IMAGE_THUNK_DATA64
                 00  00  00 
                 00  00
       140003a20 9a  3b  00       dq         3B9Ah                                            IMAGE_THUNK_DATA64
                 00  00  00 
                 00  00
       140003a28 80  3b  00       dq         3B80h                                            IMAGE_THUNK_DATA64
                 00  00  00 
                 00  00
       140003a30 00              ??         00h
       140003a31 00              ??         00h
       140003a32 00              ??         00h
       140003a33 00              ??         00h
       140003a34 00              ??         00h
       140003a35 00              ??         00h
       140003a36 00              ??         00h
       140003a37 00              ??         00h
       140003a38 08  3c  00       dq         3C08h                                            IMAGE_THUNK_DATA64
                 00  00  00 
                 00  00
       140003a40 fc  3a  00       dq         3AFCh                                            IMAGE_THUNK_DATA64
                 00  00  00 
                 00  00
       140003a48 30  3b  00       dq         3B30h                                            IMAGE_THUNK_DATA64
                 00  00  00 
                 00  00
       140003a50 16  3b  00       dq         3B16h                                            IMAGE_THUNK_DATA64
                 00  00  00 
                 00  00
       140003a58 0e  3b  00       dq         3B0Eh                                            IMAGE_THUNK_DATA64
                 00  00  00 
                 00  00
       140003a60 9a  3c  00       dq         3C9Ah                                            IMAGE_THUNK_DATA64
                 00  00  00 
                 00  00
       140003a68 00              ??         00h
       140003a69 00              ??         00h
       140003a6a 00              ??         00h
       140003a6b 00              ??         00h
       140003a6c 00              ??         00h
       140003a6d 00              ??         00h
       140003a6e 00              ??         00h
       140003a6f 00              ??         00h
       140003a70 f2  3a  00       dq         3AF2h                                            IMAGE_THUNK_DATA64
                 00  00  00 
                 00  00
       140003a78 00              ??         00h
       140003a79 00              ??         00h
       140003a7a 00              ??         00h
       140003a7b 00              ??         00h
       140003a7c 00              ??         00h
       140003a7d 00              ??         00h
       140003a7e 00              ??         00h
       140003a7f 00              ??         00h
                             *************************************************************
                             * IMAGE_IMPORT_BY_NAME                                       
                             *************************************************************
       140003a80 3b  00           dw         3Bh
       140003a82 6d  65  6d       ds         "memcmp"
                 63  6d  70  00
       140003a89 00              ??         00h
                             *************************************************************
                             * IMAGE_IMPORT_BY_NAME                                       
                             *************************************************************
       140003a8a 08  00           dw         8h
       140003a8c 5f  5f  43       ds         "__C_specific_handler"
                 5f  73  70 
                 65  63  69 
       140003aa1 00              ??         00h
                             *************************************************************
                             * IMAGE_IMPORT_BY_NAME                                       
                             *************************************************************
       140003aa2 1b  00           dw         1Bh
       140003aa4 5f  5f  63       ds         "__current_exception"
                 75  72  72 
                 65  6e  74 
                             *************************************************************
                             * IMAGE_IMPORT_BY_NAME                                       
                             *************************************************************
       140003ab8 1c  00           dw         1Ch
       140003aba 5f  5f  63       ds         "__current_exception_context"
                 75  72  72 
                 65  6e  74 
                             *************************************************************
                             * IMAGE_IMPORT_BY_NAME                                       
                             *************************************************************
       140003ad6 3e  00           dw         3Eh
       140003ad8 6d  65  6d       ds         "memset"
                 73  65  74  00
       140003adf 00              ??         00h
                             *************************************************************
                             * IMAGE_IMPORT_DESCRIPTOR - DLL NAME                         *
                             *************************************************************
       140003ae0 56  43  52       ds         "VCRUNTIME140.dll"
                 55  4e  54 
                 49  4d  45 
       140003af1 00              ??         00h
                             *************************************************************
                             * IMAGE_IMPORT_BY_NAME                                       
                             *************************************************************
       140003af2 8b  00           dw         8Bh
       140003af4 73  74  72       ds         "strlen"
                 6c  65  6e  00
       140003afb 00              ??         00h
                             *************************************************************
                             * IMAGE_IMPORT_BY_NAME                                       
                             *************************************************************
       140003afc 00  00           dw         0h
       140003afe 5f  5f  61       ds         "__acrt_iob_func"
                 63  72  74 
                 5f  69  6f 
                             *************************************************************
                             * IMAGE_IMPORT_BY_NAME                                       
                             *************************************************************
       140003b0e 93  00           dw         93h
       140003b10 70  75  74       ds         "puts"
                 73  00
       140003b15 00              ??         00h
                             *************************************************************
                             * IMAGE_IMPORT_BY_NAME                                       
                             *************************************************************
       140003b16 03  00           dw         3h
       140003b18 5f  5f  73       ds         "__stdio_common_vfprintf"
                 74  64  69 
                 6f  5f  63 
                             *************************************************************
                             * IMAGE_IMPORT_BY_NAME                                       
                             *************************************************************
       140003b30 06  00           dw         6h
       140003b32 5f  5f  73       ds         "__stdio_common_vfscanf"
                 74  64  69 
                 6f  5f  63 
       140003b49 00              ??         00h
                             *************************************************************
                             * IMAGE_IMPORT_BY_NAME                                       
                             *************************************************************
       140003b4a 40  00           dw         40h
       140003b4c 5f  73  65       ds         "_seh_filter_exe"
                 68  5f  66 
                 69  6c  74 
                             *************************************************************
                             * IMAGE_IMPORT_BY_NAME                                       
                             *************************************************************
       140003b5c 42  00           dw         42h
       140003b5e 5f  73  65       ds         "_set_app_type"
                 74  5f  61 
                 70  70  5f 
                             *************************************************************
                             * IMAGE_IMPORT_BY_NAME                                       
                             *************************************************************
       140003b6c 09  00           dw         9h
       140003b6e 5f  5f  73       ds         "__setusermatherr"
                 65  74  75 
                 73  65  72 
       140003b7f 00              ??         00h
                             *************************************************************
                             * IMAGE_IMPORT_BY_NAME                                       
                             *************************************************************
       140003b80 18  00           dw         18h
       140003b82 5f  63  6f       ds         "_configure_narrow_argv"
                 6e  66  69 
                 67  75  72 
       140003b99 00              ??         00h
                             *************************************************************
                             * IMAGE_IMPORT_BY_NAME                                       
                             *************************************************************
       140003b9a 33  00           dw         33h
       140003b9c 5f  69  6e       ds         "_initialize_narrow_environment"
                 69  74  69 
                 61  6c  69 
       140003bbb 00              ??         00h
                             *************************************************************
                             * IMAGE_IMPORT_BY_NAME                                       
                             *************************************************************
       140003bbc 28  00           dw         28h
       140003bbe 5f  67  65       ds         "_get_initial_narrow_environment"
                 74  5f  69 
                 6e  69  74 
                             *************************************************************
                             * IMAGE_IMPORT_BY_NAME                                       
                             *************************************************************
       140003bde 36  00           dw         36h
       140003be0 5f  69  6e       ds         "_initterm"
                 69  74  74 
                 65  72  6d  00
                             *************************************************************
                             * IMAGE_IMPORT_BY_NAME                                       
                             *************************************************************
       140003bea 37  00           dw         37h
       140003bec 5f  69  6e       ds         "_initterm_e"
                 69  74  74 
                 65  72  6d 
                             *************************************************************
                             * IMAGE_IMPORT_BY_NAME                                       
                             *************************************************************
       140003bf8 55  00           dw         55h
       140003bfa 65  78  69       ds         "exit"
                 74  00
       140003bff 00              ??         00h
                             *************************************************************
                             * IMAGE_IMPORT_BY_NAME                                       
                             *************************************************************
       140003c00 23  00           dw         23h
       140003c02 5f  65  78       ds         "_exit"
                 69  74  00
                             *************************************************************
                             * IMAGE_IMPORT_BY_NAME                                       
                             *************************************************************
       140003c08 54  00           dw         54h
       140003c0a 5f  73  65       ds         "_set_fmode"
                 74  5f  66 
                 6d  6f  64 
       140003c15 00              ??         00h
                             *************************************************************
                             * IMAGE_IMPORT_BY_NAME                                       
                             *************************************************************
       140003c16 04  00           dw         4h
       140003c18 5f  5f  70       ds         "__p___argc"
                 5f  5f  5f 
                 61  72  67 
       140003c23 00              ??         00h
                             *************************************************************
                             * IMAGE_IMPORT_BY_NAME                                       
                             *************************************************************
       140003c24 05  00           dw         5h
       140003c26 5f  5f  70       ds         "__p___argv"
                 5f  5f  5f 
                 61  72  67 
       140003c31 00              ??         00h
                             *************************************************************
                             * IMAGE_IMPORT_BY_NAME                                       
                             *************************************************************
       140003c32 16  00           dw         16h
       140003c34 5f  63  65       ds         "_cexit"
                 78  69  74  00
       140003c3b 00              ??         00h
                             *************************************************************
                             * IMAGE_IMPORT_BY_NAME                                       
                             *************************************************************
       140003c3c 15  00           dw         15h
       140003c3e 5f  63  5f       ds         "_c_exit"
                 65  78  69 
                 74  00
                             *************************************************************
                             * IMAGE_IMPORT_BY_NAME                                       
                             *************************************************************
       140003c46 3d  00           dw         3Dh
       140003c48 5f  72  65       ds         "_register_thread_local_exe_atexit_callback"
                 67  69  73 
                 74  65  72 
       140003c73 00              ??         00h
                             *************************************************************
                             * IMAGE_IMPORT_BY_NAME                                       
                             *************************************************************
       140003c74 08  00           dw         8h
       140003c76 5f  63  6f       ds         "_configthreadlocale"
                 6e  66  69 
                 67  74  68 
                             *************************************************************
                             * IMAGE_IMPORT_BY_NAME                                       
                             *************************************************************
       140003c8a 16  00           dw         16h
       140003c8c 5f  73  65       ds         "_set_new_mode"
                 74  5f  6e 
                 65  77  5f 
                             *************************************************************
                             * IMAGE_IMPORT_BY_NAME                                       
                             *************************************************************
       140003c9a 01  00           dw         1h
       140003c9c 5f  5f  70       ds         "__p__commode"
                 5f  5f  63 
                 6f  6d  6d 
       140003ca9 00              ??         00h
                             *************************************************************
                             * IMAGE_IMPORT_BY_NAME                                       
                             *************************************************************
       140003caa 34  00           dw         34h
       140003cac 5f  69  6e       ds         "_initialize_onexit_table"
                 69  74  69 
                 61  6c  69 
       140003cc5 00              ??         00h
                             *************************************************************
                             * IMAGE_IMPORT_BY_NAME                                       
                             *************************************************************
       140003cc6 3c  00           dw         3Ch
       140003cc8 5f  72  65       ds         "_register_onexit_function"
                 67  69  73 
                 74  65  72 
                             *************************************************************
                             * IMAGE_IMPORT_BY_NAME                                       
                             *************************************************************
       140003ce2 1e  00           dw         1Eh
       140003ce4 5f  63  72       ds         "_crt_atexit"
                 74  5f  61 
                 74  65  78 
                             *************************************************************
                             * IMAGE_IMPORT_BY_NAME                                       
                             *************************************************************
       140003cf0 67  00           dw         67h
       140003cf2 74  65  72       ds         "terminate"
                 6d  69  6e 
                 61  74  65  00
                             *************************************************************
                             * IMAGE_IMPORT_DESCRIPTOR - DLL NAME                         *
                             *************************************************************
       140003cfc 61  70  69       ds         "api-ms-win-crt-string-l1-1-0.dll"
                 2d  6d  73 
                 2d  77  69 
       140003d1d 00              ??         00h
                             *************************************************************
                             * IMAGE_IMPORT_DESCRIPTOR - DLL NAME                         *
                             *************************************************************
       140003d1e 61  70  69       ds         "api-ms-win-crt-stdio-l1-1-0.dll"
                 2d  6d  73 
                 2d  77  69 
                             *************************************************************
                             * IMAGE_IMPORT_DESCRIPTOR - DLL NAME                         *
                             *************************************************************
       140003d3e 61  70  69       ds         "api-ms-win-crt-runtime-l1-1-0.dll"
                 2d  6d  73 
                 2d  77  69 
                             *************************************************************
                             * IMAGE_IMPORT_DESCRIPTOR - DLL NAME                         *
                             *************************************************************
       140003d60 61  70  69       ds         "api-ms-win-crt-math-l1-1-0.dll"
                 2d  6d  73 
                 2d  77  69 
       140003d7f 00              ??         00h
                             *************************************************************
                             * IMAGE_IMPORT_DESCRIPTOR - DLL NAME                         *
                             *************************************************************
       140003d80 61  70  69       ds         "api-ms-win-crt-locale-l1-1-0.dll"
                 2d  6d  73 
                 2d  77  69 
       140003da1 00              ??         00h
                             *************************************************************
                             * IMAGE_IMPORT_DESCRIPTOR - DLL NAME                         *
                             *************************************************************
       140003da2 61  70  69       ds         "api-ms-win-crt-heap-l1-1-0.dll"
                 2d  6d  73 
                 2d  77  69 
       140003dc1 00              ??         00h
                             *************************************************************
                             * IMAGE_IMPORT_BY_NAME                                       
                             *************************************************************
       140003dc2 d3  04           dw         4D3h
       140003dc4 52  74  6c       ds         "RtlCaptureContext"
                 43  61  70 
                 74  75  72 
                             *************************************************************
                             * IMAGE_IMPORT_BY_NAME                                       
                             *************************************************************
       140003dd6 da  04           dw         4DAh
       140003dd8 52  74  6c       ds         "RtlLookupFunctionEntry"
                 4c  6f  6f 
                 6b  75  70 
       140003def 00              ??         00h
                             *************************************************************
                             * IMAGE_IMPORT_BY_NAME                                       
                             *************************************************************
       140003df0 e1  04           dw         4E1h
       140003df2 52  74  6c       ds         "RtlVirtualUnwind"
                 56  69  72 
                 74  75  61 
       140003e03 00              ??         00h
                             *************************************************************
                             * IMAGE_IMPORT_BY_NAME                                       
                             *************************************************************
       140003e04 bc  05           dw         5BCh
       140003e06 55  6e  68       ds         "UnhandledExceptionFilter"
                 61  6e  64 
                 6c  65  64 
       140003e1f 00              ??         00h
                             *************************************************************
                             * IMAGE_IMPORT_BY_NAME                                       
                             *************************************************************
       140003e20 7b  05           dw         57Bh
       140003e22 53  65  74       ds         "SetUnhandledExceptionFilter"
                 55  6e  68 
                 61  6e  64 
                             *************************************************************
                             * IMAGE_IMPORT_BY_NAME                                       
                             *************************************************************
       140003e3e 1d  02           dw         21Dh
       140003e40 47  65  74       ds         "GetCurrentProcess"
                 43  75  72 
                 72  65  6e 
                             *************************************************************
                             * IMAGE_IMPORT_BY_NAME                                       
                             *************************************************************
       140003e52 9a  05           dw         59Ah
       140003e54 54  65  72       ds         "TerminateProcess"
                 6d  69  6e 
                 61  74  65 
       140003e65 00              ??         00h
                             *************************************************************
                             * IMAGE_IMPORT_BY_NAME                                       
                             *************************************************************
       140003e66 89  03           dw         389h
       140003e68 49  73  50       ds         "IsProcessorFeaturePresent"
                 72  6f  63 
                 65  73  73 
                             *************************************************************
                             * IMAGE_IMPORT_BY_NAME                                       
                             *************************************************************
       140003e82 50  04           dw         450h
       140003e84 51  75  65       ds         "QueryPerformanceCounter"
                 72  79  50 
                 65  72  66 
                             *************************************************************
                             * IMAGE_IMPORT_BY_NAME                                       
                             *************************************************************
       140003e9c 1e  02           dw         21Eh
       140003e9e 47  65  74       ds         "GetCurrentProcessId"
                 43  75  72 
                 72  65  6e 
                             *************************************************************
                             * IMAGE_IMPORT_BY_NAME                                       
                             *************************************************************
       140003eb2 22  02           dw         222h
       140003eb4 47  65  74       ds         "GetCurrentThreadId"
                 43  75  72 
                 72  65  6e 
       140003ec7 00              ??         00h
                             *************************************************************
                             * IMAGE_IMPORT_BY_NAME                                       
                             *************************************************************
       140003ec8 f0  02           dw         2F0h
       140003eca 47  65  74       ds         "GetSystemTimeAsFileTime"
                 53  79  73 
                 74  65  6d 
                             *************************************************************
                             * IMAGE_IMPORT_BY_NAME                                       
                             *************************************************************
       140003ee2 6c  03           dw         36Ch
       140003ee4 49  6e  69       ds         "InitializeSListHead"
                 74  69  61 
                 6c  69  7a 
                             *************************************************************
                             * IMAGE_IMPORT_BY_NAME                                       
                             *************************************************************
       140003ef8 82  03           dw         382h
       140003efa 49  73  44       ds         "IsDebuggerPresent"
                 65  62  75 
                 67  67  65 
                             *************************************************************
                             * IMAGE_IMPORT_BY_NAME                                       
                             *************************************************************
       140003f0c 7e  02           dw         27Eh
       140003f0e 47  65  74       ds         "GetModuleHandleW"
                 4d  6f  64 
                 75  6c  65 
       140003f1f 00              ??         00h
                             *************************************************************
                             * IMAGE_IMPORT_DESCRIPTOR - DLL NAME                         *
                             *************************************************************
       140003f20 4b  45  52       ds         "KERNEL32.dll"
                 4e  45  4c 
                 33  32  2e 
       140003f2d 00              ??         00h
       140003f2e 00              ??         00h
       140003f2f 00              ??         00h
       140003f30 00              ??         00h
       140003f31 00              ??         00h
       140003f32 00              ??         00h
       140003f33 00              ??         00h
       140003f34 00              ??         00h
       140003f35 00              ??         00h
       140003f36 00              ??         00h
       140003f37 00              ??         00h
       140003f38 00              ??         00h
       140003f39 00              ??         00h
       140003f3a 00              ??         00h
       140003f3b 00              ??         00h
       140003f3c 00              ??         00h
       140003f3d 00              ??         00h
       140003f3e 00              ??         00h
       140003f3f 00              ??         00h
       140003f40 00              ??         00h
       140003f41 00              ??         00h
       140003f42 00              ??         00h
       140003f43 00              ??         00h
       140003f44 00              ??         00h
       140003f45 00              ??         00h
       140003f46 00              ??         00h
       140003f47 00              ??         00h
       140003f48 00              ??         00h
       140003f49 00              ??         00h
       140003f4a 00              ??         00h
       140003f4b 00              ??         00h
       140003f4c 00              ??         00h
       140003f4d 00              ??         00h
       140003f4e 00              ??         00h
       140003f4f 00              ??         00h
       140003f50 00              ??         00h
       140003f51 00              ??         00h
       140003f52 00              ??         00h
       140003f53 00              ??         00h
       140003f54 00              ??         00h
       140003f55 00              ??         00h
       140003f56 00              ??         00h
       140003f57 00              ??         00h
       140003f58 00              ??         00h
       140003f59 00              ??         00h
       140003f5a 00              ??         00h
       140003f5b 00              ??         00h
       140003f5c 00              ??         00h
       140003f5d 00              ??         00h
       140003f5e 00              ??         00h
       140003f5f 00              ??         00h
       140003f60 00              ??         00h
       140003f61 00              ??         00h
       140003f62 00              ??         00h
       140003f63 00              ??         00h
       140003f64 00              ??         00h
       140003f65 00              ??         00h
       140003f66 00              ??         00h
       140003f67 00              ??         00h
       140003f68 00              ??         00h
       140003f69 00              ??         00h
       140003f6a 00              ??         00h
       140003f6b 00              ??         00h
       140003f6c 00              ??         00h
       140003f6d 00              ??         00h
       140003f6e 00              ??         00h
       140003f6f 00              ??         00h
       140003f70 00              ??         00h
       140003f71 00              ??         00h
       140003f72 00              ??         00h
       140003f73 00              ??         00h
       140003f74 00              ??         00h
       140003f75 00              ??         00h
       140003f76 00              ??         00h
       140003f77 00              ??         00h
       140003f78 00              ??         00h
       140003f79 00              ??         00h
       140003f7a 00              ??         00h
       140003f7b 00              ??         00h
       140003f7c 00              ??         00h
       140003f7d 00              ??         00h
       140003f7e 00              ??         00h
       140003f7f 00              ??         00h
       140003f80 00              ??         00h
       140003f81 00              ??         00h
       140003f82 00              ??         00h
       140003f83 00              ??         00h
       140003f84 00              ??         00h
       140003f85 00              ??         00h
       140003f86 00              ??         00h
       140003f87 00              ??         00h
       140003f88 00              ??         00h
       140003f89 00              ??         00h
       140003f8a 00              ??         00h
       140003f8b 00              ??         00h
       140003f8c 00              ??         00h
       140003f8d 00              ??         00h
       140003f8e 00              ??         00h
       140003f8f 00              ??         00h
       140003f90 00              ??         00h
       140003f91 00              ??         00h
       140003f92 00              ??         00h
       140003f93 00              ??         00h
       140003f94 00              ??         00h
       140003f95 00              ??         00h
       140003f96 00              ??         00h
       140003f97 00              ??         00h
       140003f98 00              ??         00h
       140003f99 00              ??         00h
       140003f9a 00              ??         00h
       140003f9b 00              ??         00h
       140003f9c 00              ??         00h
       140003f9d 00              ??         00h
       140003f9e 00              ??         00h
       140003f9f 00              ??         00h
       140003fa0 00              ??         00h
       140003fa1 00              ??         00h
       140003fa2 00              ??         00h
       140003fa3 00              ??         00h
       140003fa4 00              ??         00h
       140003fa5 00              ??         00h
       140003fa6 00              ??         00h
       140003fa7 00              ??         00h
       140003fa8 00              ??         00h
       140003fa9 00              ??         00h
       140003faa 00              ??         00h
       140003fab 00              ??         00h
       140003fac 00              ??         00h
       140003fad 00              ??         00h
       140003fae 00              ??         00h
       140003faf 00              ??         00h
       140003fb0 00              ??         00h
       140003fb1 00              ??         00h
       140003fb2 00              ??         00h
       140003fb3 00              ??         00h
       140003fb4 00              ??         00h
       140003fb5 00              ??         00h
       140003fb6 00              ??         00h
       140003fb7 00              ??         00h
       140003fb8 00              ??         00h
       140003fb9 00              ??         00h
       140003fba 00              ??         00h
       140003fbb 00              ??         00h
       140003fbc 00              ??         00h
       140003fbd 00              ??         00h
       140003fbe 00              ??         00h
       140003fbf 00              ??         00h
       140003fc0 00              ??         00h
       140003fc1 00              ??         00h
       140003fc2 00              ??         00h
       140003fc3 00              ??         00h
       140003fc4 00              ??         00h
       140003fc5 00              ??         00h
       140003fc6 00              ??         00h
       140003fc7 00              ??         00h
       140003fc8 00              ??         00h
       140003fc9 00              ??         00h
       140003fca 00              ??         00h
       140003fcb 00              ??         00h
       140003fcc 00              ??         00h
       140003fcd 00              ??         00h
       140003fce 00              ??         00h
       140003fcf 00              ??         00h
       140003fd0 00              ??         00h
       140003fd1 00              ??         00h
       140003fd2 00              ??         00h
       140003fd3 00              ??         00h
       140003fd4 00              ??         00h
       140003fd5 00              ??         00h
       140003fd6 00              ??         00h
       140003fd7 00              ??         00h
       140003fd8 00              ??         00h
       140003fd9 00              ??         00h
       140003fda 00              ??         00h
       140003fdb 00              ??         00h
       140003fdc 00              ??         00h
       140003fdd 00              ??         00h
       140003fde 00              ??         00h
       140003fdf 00              ??         00h
       140003fe0 00              ??         00h
       140003fe1 00              ??         00h
       140003fe2 00              ??         00h
       140003fe3 00              ??         00h
       140003fe4 00              ??         00h
       140003fe5 00              ??         00h
       140003fe6 00              ??         00h
       140003fe7 00              ??         00h
       140003fe8 00              ??         00h
       140003fe9 00              ??         00h
       140003fea 00              ??         00h
       140003feb 00              ??         00h
       140003fec 00              ??         00h
       140003fed 00              ??         00h
       140003fee 00              ??         00h
       140003fef 00              ??         00h
       140003ff0 00              ??         00h
       140003ff1 00              ??         00h
       140003ff2 00              ??         00h
       140003ff3 00              ??         00h
       140003ff4 00              ??         00h
       140003ff5 00              ??         00h
       140003ff6 00              ??         00h
       140003ff7 00              ??         00h
       140003ff8 00              ??         00h
       140003ff9 00              ??         00h
       140003ffa 00              ??         00h
       140003ffb 00              ??         00h
       140003ffc 00              ??         00h
       140003ffd 00              ??         00h
       140003ffe 00              ??         00h
       140003fff 00              ??         00h
                             //
                             // .data 
                             // ram:140004000-ram:1400041ff
                             //
                             DAT_140004000                                   XREF[2]:     14000025c (*) , 
                                                                                          FUN_140001000:140001071 (*)   
       140004000 7e              ??         7Eh    ~
       140004001 7d              ??         7Dh    }
       140004002 9a              ??         9Ah
       140004003 8b              ??         8Bh
       140004004 25              ??         25h    %
       140004005 2d              ??         2Dh    -
       140004006 d5              ??         D5h
       140004007 3d              ??         3Dh    =
       140004008 03              ??         03h
       140004009 2b              ??         2Bh    +
       14000400a 38              ??         38h    8
       14000400b 98              ??         98h
       14000400c 27              ??         27h    '
       14000400d 9f              ??         9Fh
       14000400e 4f              ??         4Fh    O
       14000400f bc              ??         BCh
       140004010 2a              ??         2Ah    *
       140004011 79              ??         79h    y
       140004012 00              ??         00h
       140004013 7d              ??         7Dh    }
       140004014 c4              ??         C4h
       140004015 2a              ??         2Ah    *
       140004016 4f              ??         4Fh    O
       140004017 58              ??         58h    X
       140004018 00              ??         00h
       140004019 00              ??         00h
       14000401a 00              ??         00h
       14000401b 00              ??         00h
       14000401c 00              ??         00h
       14000401d 00              ??         00h
       14000401e 00              ??         00h
       14000401f 00              ??         00h
                             DAT_140004020                                   XREF[2]:     FUN_1400010a0:140001130 (*) , 
                                                                                          FUN_1400010a0:140001137 (*)   
       140004020 63              ??         63h    c
       140004021 7c              ??         7Ch    |
       140004022 77              ??         77h    w
       140004023 7b              ??         7Bh    {
       140004024 f2              ??         F2h
       140004025 6b              ??         6Bh    k
       140004026 6f              ??         6Fh    o
       140004027 c5              ??         C5h
       140004028 30              ??         30h    0
       140004029 01              ??         01h
       14000402a 67              ??         67h    g
       14000402b 2b              ??         2Bh    +
       14000402c fe              ??         FEh
       14000402d d7              ??         D7h
       14000402e ab              ??         ABh
       14000402f 76              ??         76h    v
       140004030 ca              ??         CAh
       140004031 82              ??         82h
       140004032 c9              ??         C9h
       140004033 7d              ??         7Dh    }
       140004034 fa              ??         FAh
       140004035 59              ??         59h    Y
       140004036 47              ??         47h    G
       140004037 f0              ??         F0h
       140004038 ad              ??         ADh
       140004039 d4              ??         D4h
       14000403a a2              ??         A2h
       14000403b af              ??         AFh
       14000403c 9c              ??         9Ch
       14000403d a4              ??         A4h
       14000403e 72              ??         72h    r
       14000403f c0              ??         C0h
       140004040 b7              ??         B7h
       140004041 fd              ??         FDh
       140004042 93              ??         93h
       140004043 26              ??         26h    &
       140004044 36              ??         36h    6
       140004045 3f              ??         3Fh    ?
       140004046 f7              ??         F7h
       140004047 cc              ??         CCh
       140004048 34              ??         34h    4
       140004049 a5              ??         A5h
       14000404a e5              ??         E5h
       14000404b f1              ??         F1h
       14000404c 71              ??         71h    q
       14000404d d8              ??         D8h
       14000404e 31              ??         31h    1
       14000404f 15              ??         15h
       140004050 04              ??         04h
       140004051 c7              ??         C7h
       140004052 23              ??         23h    #
       140004053 c3              ??         C3h
       140004054 18              ??         18h
       140004055 96              ??         96h
       140004056 05              ??         05h
       140004057 9a              ??         9Ah
       140004058 07              ??         07h
       140004059 12              ??         12h
       14000405a 80              ??         80h
       14000405b e2              ??         E2h
       14000405c eb              ??         EBh
       14000405d 27              ??         27h    '
       14000405e b2              ??         B2h
       14000405f 75              ??         75h    u
       140004060 09              ??         09h
       140004061 83              ??         83h
       140004062 2c              ??         2Ch    ,
       140004063 1a              ??         1Ah
       140004064 1b              ??         1Bh
       140004065 6e              ??         6Eh    n
       140004066 5a              ??         5Ah    Z
       140004067 a0              ??         A0h
       140004068 52              ??         52h    R
       140004069 3b              ??         3Bh    ;
       14000406a d6              ??         D6h
       14000406b b3              ??         B3h
       14000406c 29              ??         29h    )
       14000406d e3              ??         E3h
       14000406e 2f              ??         2Fh    /
       14000406f 84              ??         84h
       140004070 53              ??         53h    S
       140004071 d1              ??         D1h
       140004072 00              ??         00h
       140004073 ed              ??         EDh
       140004074 20              ??         20h     
       140004075 fc              ??         FCh
       140004076 b1              ??         B1h
       140004077 5b              ??         5Bh    [
       140004078 6a              ??         6Ah    j
       140004079 cb              ??         CBh
       14000407a be              ??         BEh
       14000407b 39              ??         39h    9
       14000407c 4a              ??         4Ah    J
       14000407d 4c              ??         4Ch    L
       14000407e 58              ??         58h    X
       14000407f cf              ??         CFh
       140004080 d0              ??         D0h
       140004081 ef              ??         EFh
       140004082 aa              ??         AAh
       140004083 fb              ??         FBh
       140004084 43              ??         43h    C
       140004085 4d              ??         4Dh    M
       140004086 33              ??         33h    3
       140004087 85              ??         85h
       140004088 45              ??         45h    E
       140004089 f9              ??         F9h
       14000408a 02              ??         02h
       14000408b 7f              ??         7Fh    
       14000408c 50              ??         50h    P
       14000408d 3c              ??         3Ch    <
       14000408e 9f              ??         9Fh
       14000408f a8              ??         A8h
       140004090 51              ??         51h    Q
       140004091 a3              ??         A3h
       140004092 40              ??         40h    @
       140004093 8f              ??         8Fh
       140004094 92              ??         92h
       140004095 9d              ??         9Dh
       140004096 38              ??         38h    8
       140004097 f5              ??         F5h
       140004098 bc              ??         BCh
       140004099 b6              ??         B6h
       14000409a da              ??         DAh
       14000409b 21              ??         21h    !
       14000409c 10              ??         10h
       14000409d ff              ??         FFh
       14000409e f3              ??         F3h
       14000409f d2              ??         D2h
       1400040a0 cd              ??         CDh
       1400040a1 0c              ??         0Ch
       1400040a2 13              ??         13h
       1400040a3 ec              ??         ECh
       1400040a4 5f              ??         5Fh    _
       1400040a5 97              ??         97h
       1400040a6 44              ??         44h    D
       1400040a7 17              ??         17h
       1400040a8 c4              ??         C4h
       1400040a9 a7              ??         A7h
       1400040aa 7e              ??         7Eh    ~
       1400040ab 3d              ??         3Dh    =
       1400040ac 64              ??         64h    d
       1400040ad 5d              ??         5Dh    ]
       1400040ae 19              ??         19h
       1400040af 73              ??         73h    s
       1400040b0 60              ??         60h    `
       1400040b1 81              ??         81h
       1400040b2 4f              ??         4Fh    O
       1400040b3 dc              ??         DCh
       1400040b4 22              ??         22h    "
       1400040b5 2a              ??         2Ah    *
       1400040b6 90              ??         90h
       1400040b7 88              ??         88h
       1400040b8 46              ??         46h    F
       1400040b9 ee              ??         EEh
       1400040ba b8              ??         B8h
       1400040bb 14              ??         14h
       1400040bc de              ??         DEh
       1400040bd 5e              ??         5Eh    ^
       1400040be 0b              ??         0Bh
       1400040bf db              ??         DBh
       1400040c0 e0              ??         E0h
       1400040c1 32              ??         32h    2
       1400040c2 3a              ??         3Ah    :
       1400040c3 0a              ??         0Ah
       1400040c4 49              ??         49h    I
       1400040c5 06              ??         06h
       1400040c6 24              ??         24h    $
       1400040c7 5c              ??         5Ch    \
       1400040c8 c2              ??         C2h
       1400040c9 d3              ??         D3h
       1400040ca ac              ??         ACh
       1400040cb 62              ??         62h    b
       1400040cc 91              ??         91h
       1400040cd 95              ??         95h
       1400040ce e4              ??         E4h
       1400040cf 79              ??         79h    y
       1400040d0 e7              ??         E7h
       1400040d1 c8              ??         C8h
       1400040d2 37              ??         37h    7
       1400040d3 6d              ??         6Dh    m
       1400040d4 8d              ??         8Dh
       1400040d5 d5              ??         D5h
       1400040d6 4e              ??         4Eh    N
       1400040d7 a9              ??         A9h
       1400040d8 6c              ??         6Ch    l
       1400040d9 56              ??         56h    V
       1400040da f4              ??         F4h
       1400040db ea              ??         EAh
       1400040dc 65              ??         65h    e
       1400040dd 7a              ??         7Ah    z
       1400040de ae              ??         AEh
       1400040df 08              ??         08h
       1400040e0 ba              ??         BAh
       1400040e1 78              ??         78h    x
       1400040e2 25              ??         25h    %
       1400040e3 2e              ??         2Eh    .
       1400040e4 1c              ??         1Ch
       1400040e5 a6              ??         A6h
       1400040e6 b4              ??         B4h
       1400040e7 c6              ??         C6h
       1400040e8 e8              ??         E8h
       1400040e9 dd              ??         DDh
       1400040ea 74              ??         74h    t
       1400040eb 1f              ??         1Fh
       1400040ec 4b              ??         4Bh    K
       1400040ed bd              ??         BDh
       1400040ee 8b              ??         8Bh
       1400040ef 8a              ??         8Ah
       1400040f0 70              ??         70h    p
       1400040f1 3e              ??         3Eh    >
       1400040f2 b5              ??         B5h
       1400040f3 66              ??         66h    f
       1400040f4 48              ??         48h    H
       1400040f5 03              ??         03h
       1400040f6 f6              ??         F6h
       1400040f7 0e              ??         0Eh
       1400040f8 61              ??         61h    a
       1400040f9 35              ??         35h    5
       1400040fa 57              ??         57h    W
       1400040fb b9              ??         B9h
       1400040fc 86              ??         86h
       1400040fd c1              ??         C1h
       1400040fe 1d              ??         1Dh
       1400040ff 9e              ??         9Eh
       140004100 e1              ??         E1h
       140004101 f8              ??         F8h
       140004102 98              ??         98h
       140004103 11              ??         11h
       140004104 69              ??         69h    i
       140004105 d9              ??         D9h
       140004106 8e              ??         8Eh
       140004107 94              ??         94h
       140004108 9b              ??         9Bh
       140004109 1e              ??         1Eh
       14000410a 87              ??         87h
       14000410b e9              ??         E9h
       14000410c ce              ??         CEh
       14000410d 55              ??         55h    U
       14000410e 28              ??         28h    (
       14000410f df              ??         DFh
       140004110 8c              ??         8Ch
       140004111 a1              ??         A1h
       140004112 89              ??         89h
       140004113 0d              ??         0Dh
       140004114 bf              ??         BFh
       140004115 e6              ??         E6h
       140004116 42              ??         42h    B
       140004117 68              ??         68h    h
       140004118 41              ??         41h    A
       140004119 99              ??         99h
       14000411a 2d              ??         2Dh    -
       14000411b 0f              ??         0Fh
       14000411c b0              ??         B0h
       14000411d 54              ??         54h    T
       14000411e bb              ??         BBh
       14000411f 16              ??         16h
                             DAT_140004120                                   XREF[2]:     __report_gsfailure:1400017b0 (R) , 
                                                                                          __security_init_cookie:140001b33
       140004120 cd  5d  20       undefine   FFFFD466D2205DCDh
                 d2  66  d4 
                 ff  ff
                             DAT_140004128                                   XREF[7]:     FUN_1400010a0:1400010ab (R) , 
                                                                                          FUN_140001250:140001259 (R) , 
                                                                                          __security_check_cookie:14000143
                                                                                          __report_gsfailure:14000179b (R) , 
                                                                                          __security_init_cookie:140001aa1
                                                                                          __security_init_cookie:140001b24
                                                                                          140003358 (*)   
       140004128 32  a2  df       undefine   00002B992DDFA232h
                 2d  99  2b 
                 00  00
       140004130 ff              ??         FFh
       140004131 ff              ??         FFh
       140004132 ff              ??         FFh
       140004133 ff              ??         FFh
                             DAT_140004134                                   XREF[1]:     FUN_140001b88:140001b8a (R)   
       140004134 01              ??         01h
       140004135 00              ??         00h
       140004136 00              ??         00h
       140004137 00              ??         00h
                             DAT_140004138                                   XREF[5]:     __isa_available_init:140001f1b (
                                                                                          __isa_available_init:140001f36 (
                                                                                          __isa_available_init:140001f79 (
                                                                                          __isa_available_init:140001f92 (
                                                                                          __isa_available_init:140001fc1 (
       140004138 01              ??         01h
       140004139 00              ??         00h
       14000413a 00              ??         00h
       14000413b 00              ??         00h
                             DAT_14000413c                                   XREF[6]:     __isa_available_init:140001f25 (
                                                                                          __isa_available_init:140001f42 (
                                                                                          __isa_available_init:140001f70 (
                                                                                          __isa_available_init:140001f83 (
                                                                                          __isa_available_init:140001f9c (
                                                                                          __isa_available_init:140001fba (
       14000413c 02  00  00  00    undefine   00000002h
                             DAT_140004140                                   XREF[1]:     __isa_available_init:140001e91 (
       140004140 2f              ??         2Fh    /
       140004141 20              ??         20h     
       140004142 00              ??         00h
       140004143 00              ??         00h
       140004144 00              ??         00h
       140004145 00              ??         00h
       140004146 00              ??         00h
       140004147 00              ??         00h
       140004148 00              ??         00h
       140004149 f8              ??         F8h
       14000414a 00              ??         00h
       14000414b 00              ??         00h
       14000414c 00              ??         00h
       14000414d 00              ??         00h
       14000414e 00              ??         00h
       14000414f 00              ??         00h
                             DAT_140004150                                   XREF[1]:     __scrt_is_ucrt_dll_in_use:140001
       140004150 01              ??         01h
       140004151 00              ??         00h
       140004152 00              ??         00h
       140004153 00              ??         00h
       140004154 00              ??         00h
       140004155 00              ??         00h
       140004156 00              ??         00h
       140004157 00              ??         00h
       140004158 00              ??         00h
       140004159 00              ??         00h
       14000415a 00              ??         00h
       14000415b 00              ??         00h
       14000415c 00              ??         00h
       14000415d 00              ??         00h
       14000415e 00              ??         00h
       14000415f 00              ??         00h
                             DAT_140004160                                   XREF[1]:     FUN_140001190:140001190 (*)   
       140004160 00              ??         00h
       140004161 00              ??         00h
       140004162 00              ??         00h
       140004163 00              ??         00h
       140004164 00              ??         00h
       140004165 00              ??         00h
       140004166 00              ??         00h
       140004167 00              ??         00h
                             DAT_140004168                                   XREF[1]:     FUN_1400011a0:1400011a0 (*)   
       140004168 00              ??         00h
       140004169 00              ??         00h
       14000416a 00              ??         00h
       14000416b 00              ??         00h
       14000416c 00              ??         00h
       14000416d 00              ??         00h
       14000416e 00              ??         00h
       14000416f 00              ??         00h
                             DAT_140004170                                   XREF[2]:     __report_gsfailure:14000175c (W) , 
                                                                                          140003268 (*)   
       140004170 00              ??         00h
       140004171 00              ??         00h
       140004172 00              ??         00h
       140004173 00              ??         00h
                             DAT_140004174                                   XREF[1]:     __report_gsfailure:140001766 (W)   
       140004174 00              ??         00h
       140004175 00              ??         00h
       140004176 00              ??         00h
       140004177 00              ??         00h
       140004178 00              ??         00h
       140004179 00              ??         00h
       14000417a 00              ??         00h
       14000417b 00              ??         00h
       14000417c 00              ??         00h
       14000417d 00              ??         00h
       14000417e 00              ??         00h
       14000417f 00              ??         00h
                             DAT_140004180                                   XREF[1]:     __report_gsfailure:140001749 (W)   
       140004180 00              ??         00h
       140004181 00              ??         00h
       140004182 00              ??         00h
       140004183 00              ??         00h
       140004184 00              ??         00h
       140004185 00              ??         00h
       140004186 00              ??         00h
       140004187 00              ??         00h
                             DAT_140004188                                   XREF[1]:     __report_gsfailure:140001770 (W)   
       140004188 00              ??         00h
       140004189 00              ??         00h
       14000418a 00              ??         00h
       14000418b 00              ??         00h
       14000418c 00              ??         00h
       14000418d 00              ??         00h
       14000418e 00              ??         00h
       14000418f 00              ??         00h
                             DAT_140004190                                   XREF[2]:     __report_gsfailure:140001783 (*) , 
                                                                                          __report_gsfailure:14000178a (W)   
       140004190 00  00  00       undefine   0000000000000000h
                 00  00  00 
                 00  00
       140004198 00              ??         00h
       140004199 00              ??         00h
       14000419a 00              ??         00h
       14000419b 00              ??         00h
       14000419c 00              ??         00h
       14000419d 00              ??         00h
       14000419e 00              ??         00h
       14000419f 00              ??         00h
       1400041a0 00              ??         00h
       1400041a1 00              ??         00h
       1400041a2 00              ??         00h
       1400041a3 00              ??         00h
       1400041a4 00              ??         00h
       1400041a5 00              ??         00h
       1400041a6 00              ??         00h
       1400041a7 00              ??         00h
       1400041a8 00              ??         00h
       1400041a9 00              ??         00h
       1400041aa 00              ??         00h
       1400041ab 00              ??         00h
       1400041ac 00              ??         00h
       1400041ad 00              ??         00h
       1400041ae 00              ??         00h
       1400041af 00              ??         00h
       1400041b0 00              ??         00h
       1400041b1 00              ??         00h
       1400041b2 00              ??         00h
       1400041b3 00              ??         00h
       1400041b4 00              ??         00h
       1400041b5 00              ??         00h
       1400041b6 00              ??         00h
       1400041b7 00              ??         00h
       1400041b8 00              ??         00h
       1400041b9 00              ??         00h
       1400041ba 00              ??         00h
       1400041bb 00              ??         00h
       1400041bc 00              ??         00h
       1400041bd 00              ??         00h
       1400041be 00              ??         00h
       1400041bf 00              ??         00h
       1400041c0 00              ??         00h
       1400041c1 00              ??         00h
       1400041c2 00              ??         00h
       1400041c3 00              ??         00h
       1400041c4 00              ??         00h
       1400041c5 00              ??         00h
       1400041c6 00              ??         00h
       1400041c7 00              ??         00h
       1400041c8 00              ??         00h
       1400041c9 00              ??         00h
       1400041ca 00              ??         00h
       1400041cb 00              ??         00h
       1400041cc 00              ??         00h
       1400041cd 00              ??         00h
       1400041ce 00              ??         00h
       1400041cf 00              ??         00h
       1400041d0 00              ??         00h
       1400041d1 00              ??         00h
       1400041d2 00              ??         00h
       1400041d3 00              ??         00h
       1400041d4 00              ??         00h
       1400041d5 00              ??         00h
       1400041d6 00              ??         00h
       1400041d7 00              ??         00h
       1400041d8 00              ??         00h
       1400041d9 00              ??         00h
       1400041da 00              ??         00h
       1400041db 00              ??         00h
       1400041dc 00              ??         00h
       1400041dd 00              ??         00h
       1400041de 00              ??         00h
       1400041df 00              ??         00h
       1400041e0 00              ??         00h
       1400041e1 00              ??         00h
       1400041e2 00              ??         00h
       1400041e3 00              ??         00h
       1400041e4 00              ??         00h
       1400041e5 00              ??         00h
       1400041e6 00              ??         00h
       1400041e7 00              ??         00h
       1400041e8 00              ??         00h
       1400041e9 00              ??         00h
       1400041ea 00              ??         00h
       1400041eb 00              ??         00h
       1400041ec 00              ??         00h
       1400041ed 00              ??         00h
       1400041ee 00              ??         00h
       1400041ef 00              ??         00h
       1400041f0 00              ??         00h
       1400041f1 00              ??         00h
       1400041f2 00              ??         00h
       1400041f3 00              ??         00h
       1400041f4 00              ??         00h
       1400041f5 00              ??         00h
       1400041f6 00              ??         00h
       1400041f7 00              ??         00h
       1400041f8 00              ??         00h
       1400041f9 00              ??         00h
       1400041fa 00              ??         00h
       1400041fb 00              ??         00h
       1400041fc 00              ??         00h
       1400041fd 00              ??         00h
       1400041fe 00              ??         00h
       1400041ff 00              ??         00h
                             //
                             // .data 
                             // ram:140004200-ram:140004757
                             //
       140004200                 ??         ??
       140004201                 ??         ??
       140004202                 ??         ??
       140004203                 ??         ??
       140004204                 ??         ??
       140004205                 ??         ??
       140004206                 ??         ??
       140004207                 ??         ??
       140004208                 ??         ??
       140004209                 ??         ??
       14000420a                 ??         ??
       14000420b                 ??         ??
       14000420c                 ??         ??
       14000420d                 ??         ??
       14000420e                 ??         ??
       14000420f                 ??         ??
                             DAT_140004210                                   XREF[2]:     __report_gsfailure:14000171a (*) , 
                                                                                          140003270 (*)   
       140004210                 ??         ??
       140004211                 ??         ??
       140004212                 ??         ??
       140004213                 ??         ??
       140004214                 ??         ??
       140004215                 ??         ??
       140004216                 ??         ??
       140004217                 ??         ??
       140004218                 ??         ??
       140004219                 ??         ??
       14000421a                 ??         ??
       14000421b                 ??         ??
       14000421c                 ??         ??
       14000421d                 ??         ??
       14000421e                 ??         ??
       14000421f                 ??         ??
       140004220                 ??         ??
       140004221                 ??         ??
       140004222                 ??         ??
       140004223                 ??         ??
       140004224                 ??         ??
       140004225                 ??         ??
       140004226                 ??         ??
       140004227                 ??         ??
       140004228                 ??         ??
       140004229                 ??         ??
       14000422a                 ??         ??
       14000422b                 ??         ??
       14000422c                 ??         ??
       14000422d                 ??         ??
       14000422e                 ??         ??
       14000422f                 ??         ??
       140004230                 ??         ??
       140004231                 ??         ??
       140004232                 ??         ??
       140004233                 ??         ??
       140004234                 ??         ??
       140004235                 ??         ??
       140004236                 ??         ??
       140004237                 ??         ??
       140004238                 ??         ??
       140004239                 ??         ??
       14000423a                 ??         ??
       14000423b                 ??         ??
       14000423c                 ??         ??
       14000423d                 ??         ??
       14000423e                 ??         ??
       14000423f                 ??         ??
       140004240                 ??         ??
       140004241                 ??         ??
       140004242                 ??         ??
       140004243                 ??         ??
       140004244                 ??         ??
       140004245                 ??         ??
       140004246                 ??         ??
       140004247                 ??         ??
       140004248                 ??         ??
       140004249                 ??         ??
       14000424a                 ??         ??
       14000424b                 ??         ??
       14000424c                 ??         ??
       14000424d                 ??         ??
       14000424e                 ??         ??
       14000424f                 ??         ??
       140004250                 ??         ??
       140004251                 ??         ??
       140004252                 ??         ??
       140004253                 ??         ??
       140004254                 ??         ??
       140004255                 ??         ??
       140004256                 ??         ??
       140004257                 ??         ??
       140004258                 ??         ??
       140004259                 ??         ??
       14000425a                 ??         ??
       14000425b                 ??         ??
       14000425c                 ??         ??
       14000425d                 ??         ??
       14000425e                 ??         ??
       14000425f                 ??         ??
       140004260                 ??         ??
       140004261                 ??         ??
       140004262                 ??         ??
       140004263                 ??         ??
       140004264                 ??         ??
       140004265                 ??         ??
       140004266                 ??         ??
       140004267                 ??         ??
       140004268                 ??         ??
       140004269                 ??         ??
       14000426a                 ??         ??
       14000426b                 ??         ??
       14000426c                 ??         ??
       14000426d                 ??         ??
       14000426e                 ??         ??
       14000426f                 ??         ??
       140004270                 ??         ??
       140004271                 ??         ??
       140004272                 ??         ??
       140004273                 ??         ??
       140004274                 ??         ??
       140004275                 ??         ??
       140004276                 ??         ??
       140004277                 ??         ??
       140004278                 ??         ??
       140004279                 ??         ??
       14000427a                 ??         ??
       14000427b                 ??         ??
       14000427c                 ??         ??
       14000427d                 ??         ??
       14000427e                 ??         ??
       14000427f                 ??         ??
       140004280                 ??         ??
       140004281                 ??         ??
       140004282                 ??         ??
       140004283                 ??         ??
       140004284                 ??         ??
       140004285                 ??         ??
       140004286                 ??         ??
       140004287                 ??         ??
       140004288                 ??         ??
       140004289                 ??         ??
       14000428a                 ??         ??
       14000428b                 ??         ??
       14000428c                 ??         ??
       14000428d                 ??         ??
       14000428e                 ??         ??
       14000428f                 ??         ??
                             DAT_140004290                                   XREF[1]:     __report_gsfailure:140001755 (W)   
       140004290                 ??         ??
       140004291                 ??         ??
       140004292                 ??         ??
       140004293                 ??         ??
       140004294                 ??         ??
       140004295                 ??         ??
       140004296                 ??         ??
       140004297                 ??         ??
       140004298                 ??         ??
       140004299                 ??         ??
       14000429a                 ??         ??
       14000429b                 ??         ??
       14000429c                 ??         ??
       14000429d                 ??         ??
       14000429e                 ??         ??
       14000429f                 ??         ??
       1400042a0                 ??         ??
       1400042a1                 ??         ??
       1400042a2                 ??         ??
       1400042a3                 ??         ??
       1400042a4                 ??         ??
       1400042a5                 ??         ??
       1400042a6                 ??         ??
       1400042a7                 ??         ??
                             DAT_1400042a8                                   XREF[1]:     __report_gsfailure:14000173b (W)   
       1400042a8                 ??         ??
       1400042a9                 ??         ??
       1400042aa                 ??         ??
       1400042ab                 ??         ??
       1400042ac                 ??         ??
       1400042ad                 ??         ??
       1400042ae                 ??         ??
       1400042af                 ??         ??
       1400042b0                 ??         ??
       1400042b1                 ??         ??
       1400042b2                 ??         ??
       1400042b3                 ??         ??
       1400042b4                 ??         ??
       1400042b5                 ??         ??
       1400042b6                 ??         ??
       1400042b7                 ??         ??
       1400042b8                 ??         ??
       1400042b9                 ??         ??
       1400042ba                 ??         ??
       1400042bb                 ??         ??
       1400042bc                 ??         ??
       1400042bd                 ??         ??
       1400042be                 ??         ??
       1400042bf                 ??         ??
       1400042c0                 ??         ??
       1400042c1                 ??         ??
       1400042c2                 ??         ??
       1400042c3                 ??         ??
       1400042c4                 ??         ??
       1400042c5                 ??         ??
       1400042c6                 ??         ??
       1400042c7                 ??         ??
       1400042c8                 ??         ??
       1400042c9                 ??         ??
       1400042ca                 ??         ??
       1400042cb                 ??         ??
       1400042cc                 ??         ??
       1400042cd                 ??         ??
       1400042ce                 ??         ??
       1400042cf                 ??         ??
       1400042d0                 ??         ??
       1400042d1                 ??         ??
       1400042d2                 ??         ??
       1400042d3                 ??         ??
       1400042d4                 ??         ??
       1400042d5                 ??         ??
       1400042d6                 ??         ??
       1400042d7                 ??         ??
       1400042d8                 ??         ??
       1400042d9                 ??         ??
       1400042da                 ??         ??
       1400042db                 ??         ??
       1400042dc                 ??         ??
       1400042dd                 ??         ??
       1400042de                 ??         ??
       1400042df                 ??         ??
       1400042e0                 ??         ??
       1400042e1                 ??         ??
       1400042e2                 ??         ??
       1400042e3                 ??         ??
       1400042e4                 ??         ??
       1400042e5                 ??         ??
       1400042e6                 ??         ??
       1400042e7                 ??         ??
       1400042e8                 ??         ??
       1400042e9                 ??         ??
       1400042ea                 ??         ??
       1400042eb                 ??         ??
       1400042ec                 ??         ??
       1400042ed                 ??         ??
       1400042ee                 ??         ??
       1400042ef                 ??         ??
       1400042f0                 ??         ??
       1400042f1                 ??         ??
       1400042f2                 ??         ??
       1400042f3                 ??         ??
       1400042f4                 ??         ??
       1400042f5                 ??         ??
       1400042f6                 ??         ??
       1400042f7                 ??         ??
       1400042f8                 ??         ??
       1400042f9                 ??         ??
       1400042fa                 ??         ??
       1400042fb                 ??         ??
       1400042fc                 ??         ??
       1400042fd                 ??         ??
       1400042fe                 ??         ??
       1400042ff                 ??         ??
       140004300                 ??         ??
       140004301                 ??         ??
       140004302                 ??         ??
       140004303                 ??         ??
       140004304                 ??         ??
       140004305                 ??         ??
       140004306                 ??         ??
       140004307                 ??         ??
                             DAT_140004308                                   XREF[2]:     __report_gsfailure:14000172b (W) , 
                                                                                          __report_gsfailure:140001742 (R)   
       140004308                 undefine   ??
       140004310                 ??         ??
       140004311                 ??         ??
       140004312                 ??         ??
       140004313                 ??         ??
       140004314                 ??         ??
       140004315                 ??         ??
       140004316                 ??         ??
       140004317                 ??         ??
       140004318                 ??         ??
       140004319                 ??         ??
       14000431a                 ??         ??
       14000431b                 ??         ??
       14000431c                 ??         ??
       14000431d                 ??         ??
       14000431e                 ??         ??
       14000431f                 ??         ??
       140004320                 ??         ??
       140004321                 ??         ??
       140004322                 ??         ??
       140004323                 ??         ??
       140004324                 ??         ??
       140004325                 ??         ??
       140004326                 ??         ??
       140004327                 ??         ??
       140004328                 ??         ??
       140004329                 ??         ??
       14000432a                 ??         ??
       14000432b                 ??         ??
       14000432c                 ??         ??
       14000432d                 ??         ??
       14000432e                 ??         ??
       14000432f                 ??         ??
       140004330                 ??         ??
       140004331                 ??         ??
       140004332                 ??         ??
       140004333                 ??         ??
       140004334                 ??         ??
       140004335                 ??         ??
       140004336                 ??         ??
       140004337                 ??         ??
       140004338                 ??         ??
       140004339                 ??         ??
       14000433a                 ??         ??
       14000433b                 ??         ??
       14000433c                 ??         ??
       14000433d                 ??         ??
       14000433e                 ??         ??
       14000433f                 ??         ??
       140004340                 ??         ??
       140004341                 ??         ??
       140004342                 ??         ??
       140004343                 ??         ??
       140004344                 ??         ??
       140004345                 ??         ??
       140004346                 ??         ??
       140004347                 ??         ??
       140004348                 ??         ??
       140004349                 ??         ??
       14000434a                 ??         ??
       14000434b                 ??         ??
       14000434c                 ??         ??
       14000434d                 ??         ??
       14000434e                 ??         ??
       14000434f                 ??         ??
       140004350                 ??         ??
       140004351                 ??         ??
       140004352                 ??         ??
       140004353                 ??         ??
       140004354                 ??         ??
       140004355                 ??         ??
       140004356                 ??         ??
       140004357                 ??         ??
       140004358                 ??         ??
       140004359                 ??         ??
       14000435a                 ??         ??
       14000435b                 ??         ??
       14000435c                 ??         ??
       14000435d                 ??         ??
       14000435e                 ??         ??
       14000435f                 ??         ??
       140004360                 ??         ??
       140004361                 ??         ??
       140004362                 ??         ??
       140004363                 ??         ??
       140004364                 ??         ??
       140004365                 ??         ??
       140004366                 ??         ??
       140004367                 ??         ??
       140004368                 ??         ??
       140004369                 ??         ??
       14000436a                 ??         ??
       14000436b                 ??         ??
       14000436c                 ??         ??
       14000436d                 ??         ??
       14000436e                 ??         ??
       14000436f                 ??         ??
       140004370                 ??         ??
       140004371                 ??         ??
       140004372                 ??         ??
       140004373                 ??         ??
       140004374                 ??         ??
       140004375                 ??         ??
       140004376                 ??         ??
       140004377                 ??         ??
       140004378                 ??         ??
       140004379                 ??         ??
       14000437a                 ??         ??
       14000437b                 ??         ??
       14000437c                 ??         ??
       14000437d                 ??         ??
       14000437e                 ??         ??
       14000437f                 ??         ??
       140004380                 ??         ??
       140004381                 ??         ??
       140004382                 ??         ??
       140004383                 ??         ??
       140004384                 ??         ??
       140004385                 ??         ??
       140004386                 ??         ??
       140004387                 ??         ??
       140004388                 ??         ??
       140004389                 ??         ??
       14000438a                 ??         ??
       14000438b                 ??         ??
       14000438c                 ??         ??
       14000438d                 ??         ??
       14000438e                 ??         ??
       14000438f                 ??         ??
       140004390                 ??         ??
       140004391                 ??         ??
       140004392                 ??         ??
       140004393                 ??         ??
       140004394                 ??         ??
       140004395                 ??         ??
       140004396                 ??         ??
       140004397                 ??         ??
       140004398                 ??         ??
       140004399                 ??         ??
       14000439a                 ??         ??
       14000439b                 ??         ??
       14000439c                 ??         ??
       14000439d                 ??         ??
       14000439e                 ??         ??
       14000439f                 ??         ??
       1400043a0                 ??         ??
       1400043a1                 ??         ??
       1400043a2                 ??         ??
       1400043a3                 ??         ??
       1400043a4                 ??         ??
       1400043a5                 ??         ??
       1400043a6                 ??         ??
       1400043a7                 ??         ??
       1400043a8                 ??         ??
       1400043a9                 ??         ??
       1400043aa                 ??         ??
       1400043ab                 ??         ??
       1400043ac                 ??         ??
       1400043ad                 ??         ??
       1400043ae                 ??         ??
       1400043af                 ??         ??
       1400043b0                 ??         ??
       1400043b1                 ??         ??
       1400043b2                 ??         ??
       1400043b3                 ??         ??
       1400043b4                 ??         ??
       1400043b5                 ??         ??
       1400043b6                 ??         ??
       1400043b7                 ??         ??
       1400043b8                 ??         ??
       1400043b9                 ??         ??
       1400043ba                 ??         ??
       1400043bb                 ??         ??
       1400043bc                 ??         ??
       1400043bd                 ??         ??
       1400043be                 ??         ??
       1400043bf                 ??         ??
       1400043c0                 ??         ??
       1400043c1                 ??         ??
       1400043c2                 ??         ??
       1400043c3                 ??         ??
       1400043c4                 ??         ??
       1400043c5                 ??         ??
       1400043c6                 ??         ??
       1400043c7                 ??         ??
       1400043c8                 ??         ??
       1400043c9                 ??         ??
       1400043ca                 ??         ??
       1400043cb                 ??         ??
       1400043cc                 ??         ??
       1400043cd                 ??         ??
       1400043ce                 ??         ??
       1400043cf                 ??         ??
       1400043d0                 ??         ??
       1400043d1                 ??         ??
       1400043d2                 ??         ??
       1400043d3                 ??         ??
       1400043d4                 ??         ??
       1400043d5                 ??         ??
       1400043d6                 ??         ??
       1400043d7                 ??         ??
       1400043d8                 ??         ??
       1400043d9                 ??         ??
       1400043da                 ??         ??
       1400043db                 ??         ??
       1400043dc                 ??         ??
       1400043dd                 ??         ??
       1400043de                 ??         ??
       1400043df                 ??         ??
       1400043e0                 ??         ??
       1400043e1                 ??         ??
       1400043e2                 ??         ??
       1400043e3                 ??         ??
       1400043e4                 ??         ??
       1400043e5                 ??         ??
       1400043e6                 ??         ??
       1400043e7                 ??         ??
       1400043e8                 ??         ??
       1400043e9                 ??         ??
       1400043ea                 ??         ??
       1400043eb                 ??         ??
       1400043ec                 ??         ??
       1400043ed                 ??         ??
       1400043ee                 ??         ??
       1400043ef                 ??         ??
       1400043f0                 ??         ??
       1400043f1                 ??         ??
       1400043f2                 ??         ??
       1400043f3                 ??         ??
       1400043f4                 ??         ??
       1400043f5                 ??         ??
       1400043f6                 ??         ??
       1400043f7                 ??         ??
       1400043f8                 ??         ??
       1400043f9                 ??         ??
       1400043fa                 ??         ??
       1400043fb                 ??         ??
       1400043fc                 ??         ??
       1400043fd                 ??         ??
       1400043fe                 ??         ??
       1400043ff                 ??         ??
       140004400                 ??         ??
       140004401                 ??         ??
       140004402                 ??         ??
       140004403                 ??         ??
       140004404                 ??         ??
       140004405                 ??         ??
       140004406                 ??         ??
       140004407                 ??         ??
       140004408                 ??         ??
       140004409                 ??         ??
       14000440a                 ??         ??
       14000440b                 ??         ??
       14000440c                 ??         ??
       14000440d                 ??         ??
       14000440e                 ??         ??
       14000440f                 ??         ??
       140004410                 ??         ??
       140004411                 ??         ??
       140004412                 ??         ??
       140004413                 ??         ??
       140004414                 ??         ??
       140004415                 ??         ??
       140004416                 ??         ??
       140004417                 ??         ??
       140004418                 ??         ??
       140004419                 ??         ??
       14000441a                 ??         ??
       14000441b                 ??         ??
       14000441c                 ??         ??
       14000441d                 ??         ??
       14000441e                 ??         ??
       14000441f                 ??         ??
       140004420                 ??         ??
       140004421                 ??         ??
       140004422                 ??         ??
       140004423                 ??         ??
       140004424                 ??         ??
       140004425                 ??         ??
       140004426                 ??         ??
       140004427                 ??         ??
       140004428                 ??         ??
       140004429                 ??         ??
       14000442a                 ??         ??
       14000442b                 ??         ??
       14000442c                 ??         ??
       14000442d                 ??         ??
       14000442e                 ??         ??
       14000442f                 ??         ??
       140004430                 ??         ??
       140004431                 ??         ??
       140004432                 ??         ??
       140004433                 ??         ??
       140004434                 ??         ??
       140004435                 ??         ??
       140004436                 ??         ??
       140004437                 ??         ??
       140004438                 ??         ??
       140004439                 ??         ??
       14000443a                 ??         ??
       14000443b                 ??         ??
       14000443c                 ??         ??
       14000443d                 ??         ??
       14000443e                 ??         ??
       14000443f                 ??         ??
       140004440                 ??         ??
       140004441                 ??         ??
       140004442                 ??         ??
       140004443                 ??         ??
       140004444                 ??         ??
       140004445                 ??         ??
       140004446                 ??         ??
       140004447                 ??         ??
       140004448                 ??         ??
       140004449                 ??         ??
       14000444a                 ??         ??
       14000444b                 ??         ??
       14000444c                 ??         ??
       14000444d                 ??         ??
       14000444e                 ??         ??
       14000444f                 ??         ??
       140004450                 ??         ??
       140004451                 ??         ??
       140004452                 ??         ??
       140004453                 ??         ??
       140004454                 ??         ??
       140004455                 ??         ??
       140004456                 ??         ??
       140004457                 ??         ??
       140004458                 ??         ??
       140004459                 ??         ??
       14000445a                 ??         ??
       14000445b                 ??         ??
       14000445c                 ??         ??
       14000445d                 ??         ??
       14000445e                 ??         ??
       14000445f                 ??         ??
       140004460                 ??         ??
       140004461                 ??         ??
       140004462                 ??         ??
       140004463                 ??         ??
       140004464                 ??         ??
       140004465                 ??         ??
       140004466                 ??         ??
       140004467                 ??         ??
       140004468                 ??         ??
       140004469                 ??         ??
       14000446a                 ??         ??
       14000446b                 ??         ??
       14000446c                 ??         ??
       14000446d                 ??         ??
       14000446e                 ??         ??
       14000446f                 ??         ??
       140004470                 ??         ??
       140004471                 ??         ??
       140004472                 ??         ??
       140004473                 ??         ??
       140004474                 ??         ??
       140004475                 ??         ??
       140004476                 ??         ??
       140004477                 ??         ??
       140004478                 ??         ??
       140004479                 ??         ??
       14000447a                 ??         ??
       14000447b                 ??         ??
       14000447c                 ??         ??
       14000447d                 ??         ??
       14000447e                 ??         ??
       14000447f                 ??         ??
       140004480                 ??         ??
       140004481                 ??         ??
       140004482                 ??         ??
       140004483                 ??         ??
       140004484                 ??         ??
       140004485                 ??         ??
       140004486                 ??         ??
       140004487                 ??         ??
       140004488                 ??         ??
       140004489                 ??         ??
       14000448a                 ??         ??
       14000448b                 ??         ??
       14000448c                 ??         ??
       14000448d                 ??         ??
       14000448e                 ??         ??
       14000448f                 ??         ??
       140004490                 ??         ??
       140004491                 ??         ??
       140004492                 ??         ??
       140004493                 ??         ??
       140004494                 ??         ??
       140004495                 ??         ??
       140004496                 ??         ??
       140004497                 ??         ??
       140004498                 ??         ??
       140004499                 ??         ??
       14000449a                 ??         ??
       14000449b                 ??         ??
       14000449c                 ??         ??
       14000449d                 ??         ??
       14000449e                 ??         ??
       14000449f                 ??         ??
       1400044a0                 ??         ??
       1400044a1                 ??         ??
       1400044a2                 ??         ??
       1400044a3                 ??         ??
       1400044a4                 ??         ??
       1400044a5                 ??         ??
       1400044a6                 ??         ??
       1400044a7                 ??         ??
       1400044a8                 ??         ??
       1400044a9                 ??         ??
       1400044aa                 ??         ??
       1400044ab                 ??         ??
       1400044ac                 ??         ??
       1400044ad                 ??         ??
       1400044ae                 ??         ??
       1400044af                 ??         ??
       1400044b0                 ??         ??
       1400044b1                 ??         ??
       1400044b2                 ??         ??
       1400044b3                 ??         ??
       1400044b4                 ??         ??
       1400044b5                 ??         ??
       1400044b6                 ??         ??
       1400044b7                 ??         ??
       1400044b8                 ??         ??
       1400044b9                 ??         ??
       1400044ba                 ??         ??
       1400044bb                 ??         ??
       1400044bc                 ??         ??
       1400044bd                 ??         ??
       1400044be                 ??         ??
       1400044bf                 ??         ??
       1400044c0                 ??         ??
       1400044c1                 ??         ??
       1400044c2                 ??         ??
       1400044c3                 ??         ??
       1400044c4                 ??         ??
       1400044c5                 ??         ??
       1400044c6                 ??         ??
       1400044c7                 ??         ??
       1400044c8                 ??         ??
       1400044c9                 ??         ??
       1400044ca                 ??         ??
       1400044cb                 ??         ??
       1400044cc                 ??         ??
       1400044cd                 ??         ??
       1400044ce                 ??         ??
       1400044cf                 ??         ??
       1400044d0                 ??         ??
       1400044d1                 ??         ??
       1400044d2                 ??         ??
       1400044d3                 ??         ??
       1400044d4                 ??         ??
       1400044d5                 ??         ??
       1400044d6                 ??         ??
       1400044d7                 ??         ??
       1400044d8                 ??         ??
       1400044d9                 ??         ??
       1400044da                 ??         ??
       1400044db                 ??         ??
       1400044dc                 ??         ??
       1400044dd                 ??         ??
       1400044de                 ??         ??
       1400044df                 ??         ??
       1400044e0                 ??         ??
       1400044e1                 ??         ??
       1400044e2                 ??         ??
       1400044e3                 ??         ??
       1400044e4                 ??         ??
       1400044e5                 ??         ??
       1400044e6                 ??         ??
       1400044e7                 ??         ??
       1400044e8                 ??         ??
       1400044e9                 ??         ??
       1400044ea                 ??         ??
       1400044eb                 ??         ??
       1400044ec                 ??         ??
       1400044ed                 ??         ??
       1400044ee                 ??         ??
       1400044ef                 ??         ??
       1400044f0                 ??         ??
       1400044f1                 ??         ??
       1400044f2                 ??         ??
       1400044f3                 ??         ??
       1400044f4                 ??         ??
       1400044f5                 ??         ??
       1400044f6                 ??         ??
       1400044f7                 ??         ??
       1400044f8                 ??         ??
       1400044f9                 ??         ??
       1400044fa                 ??         ??
       1400044fb                 ??         ??
       1400044fc                 ??         ??
       1400044fd                 ??         ??
       1400044fe                 ??         ??
       1400044ff                 ??         ??
       140004500                 ??         ??
       140004501                 ??         ??
       140004502                 ??         ??
       140004503                 ??         ??
       140004504                 ??         ??
       140004505                 ??         ??
       140004506                 ??         ??
       140004507                 ??         ??
       140004508                 ??         ??
       140004509                 ??         ??
       14000450a                 ??         ??
       14000450b                 ??         ??
       14000450c                 ??         ??
       14000450d                 ??         ??
       14000450e                 ??         ??
       14000450f                 ??         ??
       140004510                 ??         ??
       140004511                 ??         ??
       140004512                 ??         ??
       140004513                 ??         ??
       140004514                 ??         ??
       140004515                 ??         ??
       140004516                 ??         ??
       140004517                 ??         ??
       140004518                 ??         ??
       140004519                 ??         ??
       14000451a                 ??         ??
       14000451b                 ??         ??
       14000451c                 ??         ??
       14000451d                 ??         ??
       14000451e                 ??         ??
       14000451f                 ??         ??
       140004520                 ??         ??
       140004521                 ??         ??
       140004522                 ??         ??
       140004523                 ??         ??
       140004524                 ??         ??
       140004525                 ??         ??
       140004526                 ??         ??
       140004527                 ??         ??
       140004528                 ??         ??
       140004529                 ??         ??
       14000452a                 ??         ??
       14000452b                 ??         ??
       14000452c                 ??         ??
       14000452d                 ??         ??
       14000452e                 ??         ??
       14000452f                 ??         ??
       140004530                 ??         ??
       140004531                 ??         ??
       140004532                 ??         ??
       140004533                 ??         ??
       140004534                 ??         ??
       140004535                 ??         ??
       140004536                 ??         ??
       140004537                 ??         ??
       140004538                 ??         ??
       140004539                 ??         ??
       14000453a                 ??         ??
       14000453b                 ??         ??
       14000453c                 ??         ??
       14000453d                 ??         ??
       14000453e                 ??         ??
       14000453f                 ??         ??
       140004540                 ??         ??
       140004541                 ??         ??
       140004542                 ??         ??
       140004543                 ??         ??
       140004544                 ??         ??
       140004545                 ??         ??
       140004546                 ??         ??
       140004547                 ??         ??
       140004548                 ??         ??
       140004549                 ??         ??
       14000454a                 ??         ??
       14000454b                 ??         ??
       14000454c                 ??         ??
       14000454d                 ??         ??
       14000454e                 ??         ??
       14000454f                 ??         ??
       140004550                 ??         ??
       140004551                 ??         ??
       140004552                 ??         ??
       140004553                 ??         ??
       140004554                 ??         ??
       140004555                 ??         ??
       140004556                 ??         ??
       140004557                 ??         ??
       140004558                 ??         ??
       140004559                 ??         ??
       14000455a                 ??         ??
       14000455b                 ??         ??
       14000455c                 ??         ??
       14000455d                 ??         ??
       14000455e                 ??         ??
       14000455f                 ??         ??
       140004560                 ??         ??
       140004561                 ??         ??
       140004562                 ??         ??
       140004563                 ??         ??
       140004564                 ??         ??
       140004565                 ??         ??
       140004566                 ??         ??
       140004567                 ??         ??
       140004568                 ??         ??
       140004569                 ??         ??
       14000456a                 ??         ??
       14000456b                 ??         ??
       14000456c                 ??         ??
       14000456d                 ??         ??
       14000456e                 ??         ??
       14000456f                 ??         ??
       140004570                 ??         ??
       140004571                 ??         ??
       140004572                 ??         ??
       140004573                 ??         ??
       140004574                 ??         ??
       140004575                 ??         ??
       140004576                 ??         ??
       140004577                 ??         ??
       140004578                 ??         ??
       140004579                 ??         ??
       14000457a                 ??         ??
       14000457b                 ??         ??
       14000457c                 ??         ??
       14000457d                 ??         ??
       14000457e                 ??         ??
       14000457f                 ??         ??
       140004580                 ??         ??
       140004581                 ??         ??
       140004582                 ??         ??
       140004583                 ??         ??
       140004584                 ??         ??
       140004585                 ??         ??
       140004586                 ??         ??
       140004587                 ??         ??
       140004588                 ??         ??
       140004589                 ??         ??
       14000458a                 ??         ??
       14000458b                 ??         ??
       14000458c                 ??         ??
       14000458d                 ??         ??
       14000458e                 ??         ??
       14000458f                 ??         ??
       140004590                 ??         ??
       140004591                 ??         ??
       140004592                 ??         ??
       140004593                 ??         ??
       140004594                 ??         ??
       140004595                 ??         ??
       140004596                 ??         ??
       140004597                 ??         ??
       140004598                 ??         ??
       140004599                 ??         ??
       14000459a                 ??         ??
       14000459b                 ??         ??
       14000459c                 ??         ??
       14000459d                 ??         ??
       14000459e                 ??         ??
       14000459f                 ??         ??
       1400045a0                 ??         ??
       1400045a1                 ??         ??
       1400045a2                 ??         ??
       1400045a3                 ??         ??
       1400045a4                 ??         ??
       1400045a5                 ??         ??
       1400045a6                 ??         ??
       1400045a7                 ??         ??
       1400045a8                 ??         ??
       1400045a9                 ??         ??
       1400045aa                 ??         ??
       1400045ab                 ??         ??
       1400045ac                 ??         ??
       1400045ad                 ??         ??
       1400045ae                 ??         ??
       1400045af                 ??         ??
       1400045b0                 ??         ??
       1400045b1                 ??         ??
       1400045b2                 ??         ??
       1400045b3                 ??         ??
       1400045b4                 ??         ??
       1400045b5                 ??         ??
       1400045b6                 ??         ??
       1400045b7                 ??         ??
       1400045b8                 ??         ??
       1400045b9                 ??         ??
       1400045ba                 ??         ??
       1400045bb                 ??         ??
       1400045bc                 ??         ??
       1400045bd                 ??         ??
       1400045be                 ??         ??
       1400045bf                 ??         ??
       1400045c0                 ??         ??
       1400045c1                 ??         ??
       1400045c2                 ??         ??
       1400045c3                 ??         ??
       1400045c4                 ??         ??
       1400045c5                 ??         ??
       1400045c6                 ??         ??
       1400045c7                 ??         ??
       1400045c8                 ??         ??
       1400045c9                 ??         ??
       1400045ca                 ??         ??
       1400045cb                 ??         ??
       1400045cc                 ??         ??
       1400045cd                 ??         ??
       1400045ce                 ??         ??
       1400045cf                 ??         ??
       1400045d0                 ??         ??
       1400045d1                 ??         ??
       1400045d2                 ??         ??
       1400045d3                 ??         ??
       1400045d4                 ??         ??
       1400045d5                 ??         ??
       1400045d6                 ??         ??
       1400045d7                 ??         ??
       1400045d8                 ??         ??
       1400045d9                 ??         ??
       1400045da                 ??         ??
       1400045db                 ??         ??
       1400045dc                 ??         ??
       1400045dd                 ??         ??
       1400045de                 ??         ??
       1400045df                 ??         ??
       1400045e0                 ??         ??
       1400045e1                 ??         ??
       1400045e2                 ??         ??
       1400045e3                 ??         ??
       1400045e4                 ??         ??
       1400045e5                 ??         ??
       1400045e6                 ??         ??
       1400045e7                 ??         ??
       1400045e8                 ??         ??
       1400045e9                 ??         ??
       1400045ea                 ??         ??
       1400045eb                 ??         ??
       1400045ec                 ??         ??
       1400045ed                 ??         ??
       1400045ee                 ??         ??
       1400045ef                 ??         ??
       1400045f0                 ??         ??
       1400045f1                 ??         ??
       1400045f2                 ??         ??
       1400045f3                 ??         ??
       1400045f4                 ??         ??
       1400045f5                 ??         ??
       1400045f6                 ??         ??
       1400045f7                 ??         ??
       1400045f8                 ??         ??
       1400045f9                 ??         ??
       1400045fa                 ??         ??
       1400045fb                 ??         ??
       1400045fc                 ??         ??
       1400045fd                 ??         ??
       1400045fe                 ??         ??
       1400045ff                 ??         ??
       140004600                 ??         ??
       140004601                 ??         ??
       140004602                 ??         ??
       140004603                 ??         ??
       140004604                 ??         ??
       140004605                 ??         ??
       140004606                 ??         ??
       140004607                 ??         ??
       140004608                 ??         ??
       140004609                 ??         ??
       14000460a                 ??         ??
       14000460b                 ??         ??
       14000460c                 ??         ??
       14000460d                 ??         ??
       14000460e                 ??         ??
       14000460f                 ??         ??
       140004610                 ??         ??
       140004611                 ??         ??
       140004612                 ??         ??
       140004613                 ??         ??
       140004614                 ??         ??
       140004615                 ??         ??
       140004616                 ??         ??
       140004617                 ??         ??
       140004618                 ??         ??
       140004619                 ??         ??
       14000461a                 ??         ??
       14000461b                 ??         ??
       14000461c                 ??         ??
       14000461d                 ??         ??
       14000461e                 ??         ??
       14000461f                 ??         ??
       140004620                 ??         ??
       140004621                 ??         ??
       140004622                 ??         ??
       140004623                 ??         ??
       140004624                 ??         ??
       140004625                 ??         ??
       140004626                 ??         ??
       140004627                 ??         ??
       140004628                 ??         ??
       140004629                 ??         ??
       14000462a                 ??         ??
       14000462b                 ??         ??
       14000462c                 ??         ??
       14000462d                 ??         ??
       14000462e                 ??         ??
       14000462f                 ??         ??
       140004630                 ??         ??
       140004631                 ??         ??
       140004632                 ??         ??
       140004633                 ??         ??
       140004634                 ??         ??
       140004635                 ??         ??
       140004636                 ??         ??
       140004637                 ??         ??
       140004638                 ??         ??
       140004639                 ??         ??
       14000463a                 ??         ??
       14000463b                 ??         ??
       14000463c                 ??         ??
       14000463d                 ??         ??
       14000463e                 ??         ??
       14000463f                 ??         ??
       140004640                 ??         ??
       140004641                 ??         ??
       140004642                 ??         ??
       140004643                 ??         ??
       140004644                 ??         ??
       140004645                 ??         ??
       140004646                 ??         ??
       140004647                 ??         ??
       140004648                 ??         ??
       140004649                 ??         ??
       14000464a                 ??         ??
       14000464b                 ??         ??
       14000464c                 ??         ??
       14000464d                 ??         ??
       14000464e                 ??         ??
       14000464f                 ??         ??
       140004650                 ??         ??
       140004651                 ??         ??
       140004652                 ??         ??
       140004653                 ??         ??
       140004654                 ??         ??
       140004655                 ??         ??
       140004656                 ??         ??
       140004657                 ??         ??
       140004658                 ??         ??
       140004659                 ??         ??
       14000465a                 ??         ??
       14000465b                 ??         ??
       14000465c                 ??         ??
       14000465d                 ??         ??
       14000465e                 ??         ??
       14000465f                 ??         ??
       140004660                 ??         ??
       140004661                 ??         ??
       140004662                 ??         ??
       140004663                 ??         ??
       140004664                 ??         ??
       140004665                 ??         ??
       140004666                 ??         ??
       140004667                 ??         ??
       140004668                 ??         ??
       140004669                 ??         ??
       14000466a                 ??         ??
       14000466b                 ??         ??
       14000466c                 ??         ??
       14000466d                 ??         ??
       14000466e                 ??         ??
       14000466f                 ??         ??
       140004670                 ??         ??
       140004671                 ??         ??
       140004672                 ??         ??
       140004673                 ??         ??
       140004674                 ??         ??
       140004675                 ??         ??
       140004676                 ??         ??
       140004677                 ??         ??
       140004678                 ??         ??
       140004679                 ??         ??
       14000467a                 ??         ??
       14000467b                 ??         ??
       14000467c                 ??         ??
       14000467d                 ??         ??
       14000467e                 ??         ??
       14000467f                 ??         ??
       140004680                 ??         ??
       140004681                 ??         ??
       140004682                 ??         ??
       140004683                 ??         ??
       140004684                 ??         ??
       140004685                 ??         ??
       140004686                 ??         ??
       140004687                 ??         ??
       140004688                 ??         ??
       140004689                 ??         ??
       14000468a                 ??         ??
       14000468b                 ??         ??
       14000468c                 ??         ??
       14000468d                 ??         ??
       14000468e                 ??         ??
       14000468f                 ??         ??
       140004690                 ??         ??
       140004691                 ??         ??
       140004692                 ??         ??
       140004693                 ??         ??
       140004694                 ??         ??
       140004695                 ??         ??
       140004696                 ??         ??
       140004697                 ??         ??
       140004698                 ??         ??
       140004699                 ??         ??
       14000469a                 ??         ??
       14000469b                 ??         ??
       14000469c                 ??         ??
       14000469d                 ??         ??
       14000469e                 ??         ??
       14000469f                 ??         ??
       1400046a0                 ??         ??
       1400046a1                 ??         ??
       1400046a2                 ??         ??
       1400046a3                 ??         ??
       1400046a4                 ??         ??
       1400046a5                 ??         ??
       1400046a6                 ??         ??
       1400046a7                 ??         ??
       1400046a8                 ??         ??
       1400046a9                 ??         ??
       1400046aa                 ??         ??
       1400046ab                 ??         ??
       1400046ac                 ??         ??
       1400046ad                 ??         ??
       1400046ae                 ??         ??
       1400046af                 ??         ??
       1400046b0                 ??         ??
       1400046b1                 ??         ??
       1400046b2                 ??         ??
       1400046b3                 ??         ??
       1400046b4                 ??         ??
       1400046b5                 ??         ??
       1400046b6                 ??         ??
       1400046b7                 ??         ??
       1400046b8                 ??         ??
       1400046b9                 ??         ??
       1400046ba                 ??         ??
       1400046bb                 ??         ??
       1400046bc                 ??         ??
       1400046bd                 ??         ??
       1400046be                 ??         ??
       1400046bf                 ??         ??
       1400046c0                 ??         ??
       1400046c1                 ??         ??
       1400046c2                 ??         ??
       1400046c3                 ??         ??
       1400046c4                 ??         ??
       1400046c5                 ??         ??
       1400046c6                 ??         ??
       1400046c7                 ??         ??
       1400046c8                 ??         ??
       1400046c9                 ??         ??
       1400046ca                 ??         ??
       1400046cb                 ??         ??
       1400046cc                 ??         ??
       1400046cd                 ??         ??
       1400046ce                 ??         ??
       1400046cf                 ??         ??
       1400046d0                 ??         ??
       1400046d1                 ??         ??
       1400046d2                 ??         ??
       1400046d3                 ??         ??
       1400046d4                 ??         ??
       1400046d5                 ??         ??
       1400046d6                 ??         ??
       1400046d7                 ??         ??
       1400046d8                 ??         ??
       1400046d9                 ??         ??
       1400046da                 ??         ??
       1400046db                 ??         ??
       1400046dc                 ??         ??
       1400046dd                 ??         ??
       1400046de                 ??         ??
       1400046df                 ??         ??
                             DAT_1400046e0                                   XREF[3]:     FUN_140001538:140001568 (R) , 
                                                                                          FUN_140001538:14000157b (W) , 
                                                                                          FUN_140001538:1400015b9 (W)   
       1400046e0                 undefine   ??
       1400046e4                 ??         ??
       1400046e5                 ??         ??
       1400046e6                 ??         ??
       1400046e7                 ??         ??
                             DAT_1400046e8                                   XREF[2]:     __scrt_acquire_startup_lock:1400
                                                                                          __scrt_release_startup_lock:1400
       1400046e8                 undefine   ??
                             DAT_1400046f0                                   XREF[3]:     __scrt_initialize_crt:140001886
                                                                                          __scrt_initialize_crt:140001897
                                                                                          __scrt_uninitialize_crt:140001a1
       1400046f0                 undefine   ??
                             DAT_1400046f1                                   XREF[2]:     __scrt_initialize_onexit_tables:
                                                                                          __scrt_initialize_onexit_tables:
       1400046f1                 ??         ??
       1400046f2                 ??         ??
       1400046f3                 ??         ??
       1400046f4                 ??         ??
       1400046f5                 ??         ??
       1400046f6                 ??         ??
       1400046f7                 ??         ??
                             DAT_1400046f8                                   XREF[4]:     __scrt_initialize_onexit_tables:
                                                                                          __scrt_initialize_onexit_tables:
                                                                                          _onexit:140001a46 (R) , 
                                                                                          _onexit:140001a5d (*)   
       1400046f8                 ??         ??
       1400046f9                 ??         ??
       1400046fa                 ??         ??
       1400046fb                 ??         ??
       1400046fc                 ??         ??
       1400046fd                 ??         ??
       1400046fe                 ??         ??
       1400046ff                 ??         ??
       140004700                 ??         ??
       140004701                 ??         ??
       140004702                 ??         ??
       140004703                 ??         ??
       140004704                 ??         ??
       140004705                 ??         ??
       140004706                 ??         ??
       140004707                 ??         ??
                             DAT_140004708                                   XREF[1]:     __scrt_initialize_onexit_tables:
       140004708                 ??         ??
       140004709                 ??         ??
       14000470a                 ??         ??
       14000470b                 ??         ??
       14000470c                 ??         ??
       14000470d                 ??         ??
       14000470e                 ??         ??
       14000470f                 ??         ??
                             DAT_140004710                                   XREF[2]:     __scrt_initialize_onexit_tables:
                                                                                          __scrt_initialize_onexit_tables:
       140004710                 ??         ??
       140004711                 ??         ??
       140004712                 ??         ??
       140004713                 ??         ??
       140004714                 ??         ??
       140004715                 ??         ??
       140004716                 ??         ??
       140004717                 ??         ??
       140004718                 ??         ??
       140004719                 ??         ??
       14000471a                 ??         ??
       14000471b                 ??         ??
       14000471c                 ??         ??
       14000471d                 ??         ??
       14000471e                 ??         ??
       14000471f                 ??         ??
                             DAT_140004720                                   XREF[1]:     __scrt_initialize_onexit_tables:
       140004720                 ??         ??
       140004721                 ??         ??
       140004722                 ??         ??
       140004723                 ??         ??
       140004724                 ??         ??
       140004725                 ??         ??
       140004726                 ??         ??
       140004727                 ??         ??
       140004728                 ??         ??
       140004729                 ??         ??
       14000472a                 ??         ??
       14000472b                 ??         ??
       14000472c                 ??         ??
       14000472d                 ??         ??
       14000472e                 ??         ??
       14000472f                 ??         ??
                             DAT_140004730                                   XREF[1]:     FUN_140001b54:140001b54 (*)   
       140004730                 ??         ??
       140004731                 ??         ??
       140004732                 ??         ??
       140004733                 ??         ??
       140004734                 ??         ??
       140004735                 ??         ??
       140004736                 ??         ??
       140004737                 ??         ??
       140004738                 ??         ??
       140004739                 ??         ??
       14000473a                 ??         ??
       14000473b                 ??         ??
       14000473c                 ??         ??
       14000473d                 ??         ??
       14000473e                 ??         ??
       14000473f                 ??         ??
                             DAT_140004740                                   XREF[1]:     FUN_140001ba4:140001ba4 (RW)  
       140004740                 ??         ??
       140004741                 ??         ??
       140004742                 ??         ??
       140004743                 ??         ??
                             DAT_140004744                                   XREF[4]:     __isa_available_init:140001ecd (
                                                                                          __isa_available_init:140001ed8 (
                                                                                          __isa_available_init:140001ee1 (
                                                                                          __isa_available_init:140001f14 (
       140004744                 undefine   ??
                             DAT_140004748                                   XREF[1]:     FUN_140001b9c:140001b9c (*)   
       140004748                 ??         ??
       140004749                 ??         ??
       14000474a                 ??         ??
       14000474b                 ??         ??
       14000474c                 ??         ??
       14000474d                 ??         ??
       14000474e                 ??         ??
       14000474f                 ??         ??
                             DAT_140004750                                   XREF[1]:     FUN_140001b94:140001b94 (*)   
       140004750                 ??         ??
       140004751                 ??         ??
       140004752                 ??         ??
       140004753                 ??         ??
       140004754                 ??         ??
       140004755                 ??         ??
       140004756                 ??         ??
       140004757                 ??         ??
                             //
                             // .pdata 
                             // ram:140005000-ram:1400051ff
                             //
                             _IMAGE_RUNTIME_FUNCTION_ENTRY_ARRAY_140005000   XREF[2]:     140000198 (*) , 140000284 (*)   
       140005000 00  10  00       _IMAGE_R
                 00  94  10 
                 00  00  24 
       1400051bc 00              ??         00h
       1400051bd 00              ??         00h
       1400051be 00              ??         00h
       1400051bf 00              ??         00h
       1400051c0 00              ??         00h
       1400051c1 00              ??         00h
       1400051c2 00              ??         00h
       1400051c3 00              ??         00h
       1400051c4 00              ??         00h
       1400051c5 00              ??         00h
       1400051c6 00              ??         00h
       1400051c7 00              ??         00h
       1400051c8 00              ??         00h
       1400051c9 00              ??         00h
       1400051ca 00              ??         00h
       1400051cb 00              ??         00h
       1400051cc 00              ??         00h
       1400051cd 00              ??         00h
       1400051ce 00              ??         00h
       1400051cf 00              ??         00h
       1400051d0 00              ??         00h
       1400051d1 00              ??         00h
       1400051d2 00              ??         00h
       1400051d3 00              ??         00h
       1400051d4 00              ??         00h
       1400051d5 00              ??         00h
       1400051d6 00              ??         00h
       1400051d7 00              ??         00h
       1400051d8 00              ??         00h
       1400051d9 00              ??         00h
       1400051da 00              ??         00h
       1400051db 00              ??         00h
       1400051dc 00              ??         00h
       1400051dd 00              ??         00h
       1400051de 00              ??         00h
       1400051df 00              ??         00h
       1400051e0 00              ??         00h
       1400051e1 00              ??         00h
       1400051e2 00              ??         00h
       1400051e3 00              ??         00h
       1400051e4 00              ??         00h
       1400051e5 00              ??         00h
       1400051e6 00              ??         00h
       1400051e7 00              ??         00h
       1400051e8 00              ??         00h
       1400051e9 00              ??         00h
       1400051ea 00              ??         00h
       1400051eb 00              ??         00h
       1400051ec 00              ??         00h
       1400051ed 00              ??         00h
       1400051ee 00              ??         00h
       1400051ef 00              ??         00h
       1400051f0 00              ??         00h
       1400051f1 00              ??         00h
       1400051f2 00              ??         00h
       1400051f3 00              ??         00h
       1400051f4 00              ??         00h
       1400051f5 00              ??         00h
       1400051f6 00              ??         00h
       1400051f7 00              ??         00h
       1400051f8 00              ??         00h
       1400051f9 00              ??         00h
       1400051fa 00              ??         00h
       1400051fb 00              ??         00h
       1400051fc 00              ??         00h
       1400051fd 00              ??         00h
       1400051fe 00              ??         00h
       1400051ff 00              ??         00h
                             //
                             // .rsrc 
                             // ram:140006000-ram:1400061ff
                             //
                             IMAGE_RESOURCE_DIRECTORY_140006000              XREF[2]:     140000190 (*) , 1400002ac (*)   
       140006000 00  00  00       IMAGE_RE
                 00  00  00 
                 00  00  00 
       140006010 18  00  00       IMAGE_RE
                 00  18  00 
                 00  80
       140006018 00  00  00       IMAGE_RE
                 00  00  00 
                 00  00  00 
       140006028 01  00  00       IMAGE_RE
                 00  30  00 
                 00  80
       140006030 00  00  00       IMAGE_RE
                 00  00  00 
                 00  00  00 
       140006040 09  04  00       IMAGE_RE
                 00  48  00 
                 00  00
       140006048 60  60  00       IMAGE_RE
                 00  7d  01 
                 00  00  00 
       140006058 00              ??         00h
       140006059 00              ??         00h
       14000605a 00              ??         00h
       14000605b 00              ??         00h
       14000605c 00              ??         00h
       14000605d 00              ??         00h
       14000605e 00              ??         00h
       14000605f 00              ??         00h
                             *************************************************************
                             * Rsrc_Manifest_1_409 Size of resource: 0x17d bytes          *
                             *************************************************************
                             Rsrc_Manifest_1_409
       140006060 3c  3f  78       ds         "<?xml version='1.0' encoding='UTF-8' standalo
                 6d  6c  20 
                 76  65  72 
       1400061de 00              ??         00h
       1400061df 00              ??         00h
       1400061e0 00              ??         00h
       1400061e1 00              ??         00h
       1400061e2 00              ??         00h
       1400061e3 00              ??         00h
       1400061e4 00              ??         00h
       1400061e5 00              ??         00h
       1400061e6 00              ??         00h
       1400061e7 00              ??         00h
       1400061e8 00              ??         00h
       1400061e9 00              ??         00h
       1400061ea 00              ??         00h
       1400061eb 00              ??         00h
       1400061ec 00              ??         00h
       1400061ed 00              ??         00h
       1400061ee 00              ??         00h
       1400061ef 00              ??         00h
       1400061f0 00              ??         00h
       1400061f1 00              ??         00h
       1400061f2 00              ??         00h
       1400061f3 00              ??         00h
       1400061f4 00              ??         00h
       1400061f5 00              ??         00h
       1400061f6 00              ??         00h
       1400061f7 00              ??         00h
       1400061f8 00              ??         00h
       1400061f9 00              ??         00h
       1400061fa 00              ??         00h
       1400061fb 00              ??         00h
       1400061fc 00              ??         00h
       1400061fd 00              ??         00h
       1400061fe 00              ??         00h
       1400061ff 00              ??         00h
                             //
                             // .reloc 
                             // ram:140007000-ram:1400071ff
                             //
                             DWORD_140007000                                 XREF[2]:     1400001a8 (*) , 1400002d4 (*)   
       140007000 00  30  00  00    ddw        3000h
       140007004 1c  00  00  00    ddw        1Ch
       140007008 c0  a1           dw         A1C0h
       14000700a c8  a1           dw         A1C8h
       14000700c d8  a1           dw         A1D8h
       14000700e f0  a1           dw         A1F0h
       140007010 f8  a1           dw         A1F8h
       140007012 68  a2           dw         A268h
       140007014 70  a2           dw         A270h
       140007016 58  a3           dw         A358h
       140007018 70  a3           dw         A370h
       14000701a 78  a3           dw         A378h
       14000701c 00              ??         00h
       14000701d 00              ??         00h
       14000701e 00              ??         00h
       14000701f 00              ??         00h
       140007020 00              ??         00h
       140007021 00              ??         00h
       140007022 00              ??         00h
       140007023 00              ??         00h
       140007024 00              ??         00h
       140007025 00              ??         00h
       140007026 00              ??         00h
       140007027 00              ??         00h
       140007028 00              ??         00h
       140007029 00              ??         00h
       14000702a 00              ??         00h
       14000702b 00              ??         00h
       14000702c 00              ??         00h
       14000702d 00              ??         00h
       14000702e 00              ??         00h
       14000702f 00              ??         00h
       140007030 00              ??         00h
       140007031 00              ??         00h
       140007032 00              ??         00h
       140007033 00              ??         00h
       140007034 00              ??         00h
       140007035 00              ??         00h
       140007036 00              ??         00h
       140007037 00              ??         00h
       140007038 00              ??         00h
       140007039 00              ??         00h
       14000703a 00              ??         00h
       14000703b 00              ??         00h
       14000703c 00              ??         00h
       14000703d 00              ??         00h
       14000703e 00              ??         00h
       14000703f 00              ??         00h
       140007040 00              ??         00h
       140007041 00              ??         00h
       140007042 00              ??         00h
       140007043 00              ??         00h
       140007044 00              ??         00h
       140007045 00              ??         00h
       140007046 00              ??         00h
       140007047 00              ??         00h
       140007048 00              ??         00h
       140007049 00              ??         00h
       14000704a 00              ??         00h
       14000704b 00              ??         00h
       14000704c 00              ??         00h
       14000704d 00              ??         00h
       14000704e 00              ??         00h
       14000704f 00              ??         00h
       140007050 00              ??         00h
       140007051 00              ??         00h
       140007052 00              ??         00h
       140007053 00              ??         00h
       140007054 00              ??         00h
       140007055 00              ??         00h
       140007056 00              ??         00h
       140007057 00              ??         00h
       140007058 00              ??         00h
       140007059 00              ??         00h
       14000705a 00              ??         00h
       14000705b 00              ??         00h
       14000705c 00              ??         00h
       14000705d 00              ??         00h
       14000705e 00              ??         00h
       14000705f 00              ??         00h
       140007060 00              ??         00h
       140007061 00              ??         00h
       140007062 00              ??         00h
       140007063 00              ??         00h
       140007064 00              ??         00h
       140007065 00              ??         00h
       140007066 00              ??         00h
       140007067 00              ??         00h
       140007068 00              ??         00h
       140007069 00              ??         00h
       14000706a 00              ??         00h
       14000706b 00              ??         00h
       14000706c 00              ??         00h
       14000706d 00              ??         00h
       14000706e 00              ??         00h
       14000706f 00              ??         00h
       140007070 00              ??         00h
       140007071 00              ??         00h
       140007072 00              ??         00h
       140007073 00              ??         00h
       140007074 00              ??         00h
       140007075 00              ??         00h
       140007076 00              ??         00h
       140007077 00              ??         00h
       140007078 00              ??         00h
       140007079 00              ??         00h
       14000707a 00              ??         00h
       14000707b 00              ??         00h
       14000707c 00              ??         00h
       14000707d 00              ??         00h
       14000707e 00              ??         00h
       14000707f 00              ??         00h
       140007080 00              ??         00h
       140007081 00              ??         00h
       140007082 00              ??         00h
       140007083 00              ??         00h
       140007084 00              ??         00h
       140007085 00              ??         00h
       140007086 00              ??         00h
       140007087 00              ??         00h
       140007088 00              ??         00h
       140007089 00              ??         00h
       14000708a 00              ??         00h
       14000708b 00              ??         00h
       14000708c 00              ??         00h
       14000708d 00              ??         00h
       14000708e 00              ??         00h
       14000708f 00              ??         00h
       140007090 00              ??         00h
       140007091 00              ??         00h
       140007092 00              ??         00h
       140007093 00              ??         00h
       140007094 00              ??         00h
       140007095 00              ??         00h
       140007096 00              ??         00h
       140007097 00              ??         00h
       140007098 00              ??         00h
       140007099 00              ??         00h
       14000709a 00              ??         00h
       14000709b 00              ??         00h
       14000709c 00              ??         00h
       14000709d 00              ??         00h
       14000709e 00              ??         00h
       14000709f 00              ??         00h
       1400070a0 00              ??         00h
       1400070a1 00              ??         00h
       1400070a2 00              ??         00h
       1400070a3 00              ??         00h
       1400070a4 00              ??         00h
       1400070a5 00              ??         00h
       1400070a6 00              ??         00h
       1400070a7 00              ??         00h
       1400070a8 00              ??         00h
       1400070a9 00              ??         00h
       1400070aa 00              ??         00h
       1400070ab 00              ??         00h
       1400070ac 00              ??         00h
       1400070ad 00              ??         00h
       1400070ae 00              ??         00h
       1400070af 00              ??         00h
       1400070b0 00              ??         00h
       1400070b1 00              ??         00h
       1400070b2 00              ??         00h
       1400070b3 00              ??         00h
       1400070b4 00              ??         00h
       1400070b5 00              ??         00h
       1400070b6 00              ??         00h
       1400070b7 00              ??         00h
       1400070b8 00              ??         00h
       1400070b9 00              ??         00h
       1400070ba 00              ??         00h
       1400070bb 00              ??         00h
       1400070bc 00              ??         00h
       1400070bd 00              ??         00h
       1400070be 00              ??         00h
       1400070bf 00              ??         00h
       1400070c0 00              ??         00h
       1400070c1 00              ??         00h
       1400070c2 00              ??         00h
       1400070c3 00              ??         00h
       1400070c4 00              ??         00h
       1400070c5 00              ??         00h
       1400070c6 00              ??         00h
       1400070c7 00              ??         00h
       1400070c8 00              ??         00h
       1400070c9 00              ??         00h
       1400070ca 00              ??         00h
       1400070cb 00              ??         00h
       1400070cc 00              ??         00h
       1400070cd 00              ??         00h
       1400070ce 00              ??         00h
       1400070cf 00              ??         00h
       1400070d0 00              ??         00h
       1400070d1 00              ??         00h
       1400070d2 00              ??         00h
       1400070d3 00              ??         00h
       1400070d4 00              ??         00h
       1400070d5 00              ??         00h
       1400070d6 00              ??         00h
       1400070d7 00              ??         00h
       1400070d8 00              ??         00h
       1400070d9 00              ??         00h
       1400070da 00              ??         00h
       1400070db 00              ??         00h
       1400070dc 00              ??         00h
       1400070dd 00              ??         00h
       1400070de 00              ??         00h
       1400070df 00              ??         00h
       1400070e0 00              ??         00h
       1400070e1 00              ??         00h
       1400070e2 00              ??         00h
       1400070e3 00              ??         00h
       1400070e4 00              ??         00h
       1400070e5 00              ??         00h
       1400070e6 00              ??         00h
       1400070e7 00              ??         00h
       1400070e8 00              ??         00h
       1400070e9 00              ??         00h
       1400070ea 00              ??         00h
       1400070eb 00              ??         00h
       1400070ec 00              ??         00h
       1400070ed 00              ??         00h
       1400070ee 00              ??         00h
       1400070ef 00              ??         00h
       1400070f0 00              ??         00h
       1400070f1 00              ??         00h
       1400070f2 00              ??         00h
       1400070f3 00              ??         00h
       1400070f4 00              ??         00h
       1400070f5 00              ??         00h
       1400070f6 00              ??         00h
       1400070f7 00              ??         00h
       1400070f8 00              ??         00h
       1400070f9 00              ??         00h
       1400070fa 00              ??         00h
       1400070fb 00              ??         00h
       1400070fc 00              ??         00h
       1400070fd 00              ??         00h
       1400070fe 00              ??         00h
       1400070ff 00              ??         00h
       140007100 00              ??         00h
       140007101 00              ??         00h
       140007102 00              ??         00h
       140007103 00              ??         00h
       140007104 00              ??         00h
       140007105 00              ??         00h
       140007106 00              ??         00h
       140007107 00              ??         00h
       140007108 00              ??         00h
       140007109 00              ??         00h
       14000710a 00              ??         00h
       14000710b 00              ??         00h
       14000710c 00              ??         00h
       14000710d 00              ??         00h
       14000710e 00              ??         00h
       14000710f 00              ??         00h
       140007110 00              ??         00h
       140007111 00              ??         00h
       140007112 00              ??         00h
       140007113 00              ??         00h
       140007114 00              ??         00h
       140007115 00              ??         00h
       140007116 00              ??         00h
       140007117 00              ??         00h
       140007118 00              ??         00h
       140007119 00              ??         00h
       14000711a 00              ??         00h
       14000711b 00              ??         00h
       14000711c 00              ??         00h
       14000711d 00              ??         00h
       14000711e 00              ??         00h
       14000711f 00              ??         00h
       140007120 00              ??         00h
       140007121 00              ??         00h
       140007122 00              ??         00h
       140007123 00              ??         00h
       140007124 00              ??         00h
       140007125 00              ??         00h
       140007126 00              ??         00h
       140007127 00              ??         00h
       140007128 00              ??         00h
       140007129 00              ??         00h
       14000712a 00              ??         00h
       14000712b 00              ??         00h
       14000712c 00              ??         00h
       14000712d 00              ??         00h
       14000712e 00              ??         00h
       14000712f 00              ??         00h
       140007130 00              ??         00h
       140007131 00              ??         00h
       140007132 00              ??         00h
       140007133 00              ??         00h
       140007134 00              ??         00h
       140007135 00              ??         00h
       140007136 00              ??         00h
       140007137 00              ??         00h
       140007138 00              ??         00h
       140007139 00              ??         00h
       14000713a 00              ??         00h
       14000713b 00              ??         00h
       14000713c 00              ??         00h
       14000713d 00              ??         00h
       14000713e 00              ??         00h
       14000713f 00              ??         00h
       140007140 00              ??         00h
       140007141 00              ??         00h
       140007142 00              ??         00h
       140007143 00              ??         00h
       140007144 00              ??         00h
       140007145 00              ??         00h
       140007146 00              ??         00h
       140007147 00              ??         00h
       140007148 00              ??         00h
       140007149 00              ??         00h
       14000714a 00              ??         00h
       14000714b 00              ??         00h
       14000714c 00              ??         00h
       14000714d 00              ??         00h
       14000714e 00              ??         00h
       14000714f 00              ??         00h
       140007150 00              ??         00h
       140007151 00              ??         00h
       140007152 00              ??         00h
       140007153 00              ??         00h
       140007154 00              ??         00h
       140007155 00              ??         00h
       140007156 00              ??         00h
       140007157 00              ??         00h
       140007158 00              ??         00h
       140007159 00              ??         00h
       14000715a 00              ??         00h
       14000715b 00              ??         00h
       14000715c 00              ??         00h
       14000715d 00              ??         00h
       14000715e 00              ??         00h
       14000715f 00              ??         00h
       140007160 00              ??         00h
       140007161 00              ??         00h
       140007162 00              ??         00h
       140007163 00              ??         00h
       140007164 00              ??         00h
       140007165 00              ??         00h
       140007166 00              ??         00h
       140007167 00              ??         00h
       140007168 00              ??         00h
       140007169 00              ??         00h
       14000716a 00              ??         00h
       14000716b 00              ??         00h
       14000716c 00              ??         00h
       14000716d 00              ??         00h
       14000716e 00              ??         00h
       14000716f 00              ??         00h
       140007170 00              ??         00h
       140007171 00              ??         00h
       140007172 00              ??         00h
       140007173 00              ??         00h
       140007174 00              ??         00h
       140007175 00              ??         00h
       140007176 00              ??         00h
       140007177 00              ??         00h
       140007178 00              ??         00h
       140007179 00              ??         00h
       14000717a 00              ??         00h
       14000717b 00              ??         00h
       14000717c 00              ??         00h
       14000717d 00              ??         00h
       14000717e 00              ??         00h
       14000717f 00              ??         00h
       140007180 00              ??         00h
       140007181 00              ??         00h
       140007182 00              ??         00h
       140007183 00              ??         00h
       140007184 00              ??         00h
       140007185 00              ??         00h
       140007186 00              ??         00h
       140007187 00              ??         00h
       140007188 00              ??         00h
       140007189 00              ??         00h
       14000718a 00              ??         00h
       14000718b 00              ??         00h
       14000718c 00              ??         00h
       14000718d 00              ??         00h
       14000718e 00              ??         00h
       14000718f 00              ??         00h
       140007190 00              ??         00h
       140007191 00              ??         00h
       140007192 00              ??         00h
       140007193 00              ??         00h
       140007194 00              ??         00h
       140007195 00              ??         00h
       140007196 00              ??         00h
       140007197 00              ??         00h
       140007198 00              ??         00h
       140007199 00              ??         00h
       14000719a 00              ??         00h
       14000719b 00              ??         00h
       14000719c 00              ??         00h
       14000719d 00              ??         00h
       14000719e 00              ??         00h
       14000719f 00              ??         00h
       1400071a0 00              ??         00h
       1400071a1 00              ??         00h
       1400071a2 00              ??         00h
       1400071a3 00              ??         00h
       1400071a4 00              ??         00h
       1400071a5 00              ??         00h
       1400071a6 00              ??         00h
       1400071a7 00              ??         00h
       1400071a8 00              ??         00h
       1400071a9 00              ??         00h
       1400071aa 00              ??         00h
       1400071ab 00              ??         00h
       1400071ac 00              ??         00h
       1400071ad 00              ??         00h
       1400071ae 00              ??         00h
       1400071af 00              ??         00h
       1400071b0 00              ??         00h
       1400071b1 00              ??         00h
       1400071b2 00              ??         00h
       1400071b3 00              ??         00h
       1400071b4 00              ??         00h
       1400071b5 00              ??         00h
       1400071b6 00              ??         00h
       1400071b7 00              ??         00h
       1400071b8 00              ??         00h
       1400071b9 00              ??         00h
       1400071ba 00              ??         00h
       1400071bb 00              ??         00h
       1400071bc 00              ??         00h
       1400071bd 00              ??         00h
       1400071be 00              ??         00h
       1400071bf 00              ??         00h
       1400071c0 00              ??         00h
       1400071c1 00              ??         00h
       1400071c2 00              ??         00h
       1400071c3 00              ??         00h
       1400071c4 00              ??         00h
       1400071c5 00              ??         00h
       1400071c6 00              ??         00h
       1400071c7 00              ??         00h
       1400071c8 00              ??         00h
       1400071c9 00              ??         00h
       1400071ca 00              ??         00h
       1400071cb 00              ??         00h
       1400071cc 00              ??         00h
       1400071cd 00              ??         00h
       1400071ce 00              ??         00h
       1400071cf 00              ??         00h
       1400071d0 00              ??         00h
       1400071d1 00              ??         00h
       1400071d2 00              ??         00h
       1400071d3 00              ??         00h
       1400071d4 00              ??         00h
       1400071d5 00              ??         00h
       1400071d6 00              ??         00h
       1400071d7 00              ??         00h
       1400071d8 00              ??         00h
       1400071d9 00              ??         00h
       1400071da 00              ??         00h
       1400071db 00              ??         00h
       1400071dc 00              ??         00h
       1400071dd 00              ??         00h
       1400071de 00              ??         00h
       1400071df 00              ??         00h
       1400071e0 00              ??         00h
       1400071e1 00              ??         00h
       1400071e2 00              ??         00h
       1400071e3 00              ??         00h
       1400071e4 00              ??         00h
       1400071e5 00              ??         00h
       1400071e6 00              ??         00h
       1400071e7 00              ??         00h
       1400071e8 00              ??         00h
       1400071e9 00              ??         00h
       1400071ea 00              ??         00h
       1400071eb 00              ??         00h
       1400071ec 00              ??         00h
       1400071ed 00              ??         00h
       1400071ee 00              ??         00h
       1400071ef 00              ??         00h
       1400071f0 00              ??         00h
       1400071f1 00              ??         00h
       1400071f2 00              ??         00h
       1400071f3 00              ??         00h
       1400071f4 00              ??         00h
       1400071f5 00              ??         00h
       1400071f6 00              ??         00h
       1400071f7 00              ??         00h
       1400071f8 00              ??         00h
       1400071f9 00              ??         00h
       1400071fa 00              ??         00h
       1400071fb 00              ??         00h
       1400071fc 00              ??         00h
       1400071fd 00              ??         00h
       1400071fe 00              ??         00h
       1400071ff 00              ??         00h
                             //
                             // tdb 
                             // ram:ff00000000-ram:ff0000184f
                             //
                             ExceptionList                                   XREF[1]:     ff00000030 (*)   
      ff00000000 00  00  00       void *     00000000
                 00  00  00 
                 00  00
                             StackBase                                       XREF[1]:     __scrt_acquire_startup_lock:1400
      ff00000008 00  00  00       void *     00000000
                 00  00  00 
                 00  00
                             StackLimit
      ff00000010 00  00  00       void *     00000000
                 00  00  00 
                 00  00
                             SubSystemTib
      ff00000018 00  00  00       void *     00000000
                 00  00  00 
                 00  00
                             FiberData
      ff00000020 00  00  00       void *     00000000
                 00  00  00 
                 00  00
                             ArbitraryUserPointer
      ff00000028 00  00  00       void *     00000000
                 00  00  00 
                 00  00
                             Self                                            XREF[1]:     __scrt_acquire_startup_lock:1400
      ff00000030 00  00  00       void *     ExceptionList                                    = 00000000
                 00  ff  00 
                 00  00
                             EnvironmentPointer
      ff00000038 00  00  00       void *     00000000
                 00  00  00 
                 00  00
                             ClientId
      ff00000040 00  00  00       CLIENT_ID
                 00  00  00 
                 00  00  00 
                             ActiveRpcHandle
      ff00000050 00  00  00       void *     00000000
                 00  00  00 
                 00  00
                             ThreadLocalStoragePointer
      ff00000058 00  00  00       void *     00000000
                 00  00  00 
                 00  00
                             ProcessEnvironmentBlock
      ff00000060 00  00  00       void *     00000000
                 00  00  00 
                 00  00
                             LastErrorValue
      ff00000068 00  00  00  00    ddw        0h
                             CountOfOwnedCriticalSections
      ff0000006c 00  00  00  00    ddw        0h
                             CsrClientThread
      ff00000070 00  00  00       void *     00000000
                 00  00  00 
                 00  00
                             Win32ThreadInfo
      ff00000078 00  00  00       void *     00000000
                 00  00  00 
                 00  00
                             User32Reserved
      ff00000080 00  00  00       ddw[26]
                 00  00  00 
                 00  00  00 
                             UserReserved
      ff000000e8 00  00  00       ddw[5]
                 00  00  00 
                 00  00  00 
      ff000000fc 00              ??         00h
      ff000000fd 00              ??         00h
      ff000000fe 00              ??         00h
      ff000000ff 00              ??         00h
                             WOW32Reserved
      ff00000100 00  00  00       void *     00000000
                 00  00  00 
                 00  00
                             CurrentLocale
      ff00000108 00  00  00  00    ddw        0h
                             FpSoftwareStatusRegister
      ff0000010c 00  00  00  00    ddw        0h
                             SystemReserved1
      ff00000110 00  00  00       void *[5
                 00  00  00 
                 00  00  00 
                             ExceptionCode
      ff000002c0 00  00  00  00    ddw        0h
      ff000002c4 00              ??         00h
      ff000002c5 00              ??         00h
      ff000002c6 00              ??         00h
      ff000002c7 00              ??         00h
                             ActivationContextStackPointer
      ff000002c8 00  00  00       void *     00000000
                 00  00  00 
                 00  00
                             SpareBytes
      ff000002d0 00  00  00       uchar[24]  ""
                 00  00  00 
                 00  00  00 
                             TxFsContext
      ff000002e8 00  00  00  00    ddw        0h
      ff000002ec 00              ??         00h
      ff000002ed 00              ??         00h
                             Padding1
      ff000002ee 00  00           uchar[2]   ""
                             GdiTebBatch
      ff000002f0 00  00  00       dq         0h
                 00  00  00 
                 00  00
      ff000002f8 00              ??         00h
      ff000002f9 00              ??         00h
      ff000002fa 00              ??         00h
      ff000002fb 00              ??         00h
      ff000002fc 00              ??         00h
      ff000002fd 00              ??         00h
      ff000002fe 00              ??         00h
      ff000002ff 00              ??         00h
      ff00000300 00              ??         00h
      ff00000301 00              ??         00h
      ff00000302 00              ??         00h
      ff00000303 00              ??         00h
      ff00000304 00              ??         00h
      ff00000305 00              ??         00h
      ff00000306 00              ??         00h
      ff00000307 00              ??         00h
      ff00000308 00              ??         00h
      ff00000309 00              ??         00h
      ff0000030a 00              ??         00h
      ff0000030b 00              ??         00h
      ff0000030c 00              ??         00h
      ff0000030d 00              ??         00h
      ff0000030e 00              ??         00h
      ff0000030f 00              ??         00h
      ff00000310 00              ??         00h
      ff00000311 00              ??         00h
      ff00000312 00              ??         00h
      ff00000313 00              ??         00h
      ff00000314 00              ??         00h
      ff00000315 00              ??         00h
      ff00000316 00              ??         00h
      ff00000317 00              ??         00h
      ff00000318 00              ??         00h
      ff00000319 00              ??         00h
      ff0000031a 00              ??         00h
      ff0000031b 00              ??         00h
      ff0000031c 00              ??         00h
      ff0000031d 00              ??         00h
      ff0000031e 00              ??         00h
      ff0000031f 00              ??         00h
      ff00000320 00              ??         00h
      ff00000321 00              ??         00h
      ff00000322 00              ??         00h
      ff00000323 00              ??         00h
      ff00000324 00              ??         00h
      ff00000325 00              ??         00h
      ff00000326 00              ??         00h
      ff00000327 00              ??         00h
      ff00000328 00              ??         00h
      ff00000329 00              ??         00h
      ff0000032a 00              ??         00h
      ff0000032b 00              ??         00h
      ff0000032c 00              ??         00h
      ff0000032d 00              ??         00h
      ff0000032e 00              ??         00h
      ff0000032f 00              ??         00h
      ff00000330 00              ??         00h
      ff00000331 00              ??         00h
      ff00000332 00              ??         00h
      ff00000333 00              ??         00h
      ff00000334 00              ??         00h
      ff00000335 00              ??         00h
      ff00000336 00              ??         00h
      ff00000337 00              ??         00h
      ff00000338 00              ??         00h
      ff00000339 00              ??         00h
      ff0000033a 00              ??         00h
      ff0000033b 00              ??         00h
      ff0000033c 00              ??         00h
      ff0000033d 00              ??         00h
      ff0000033e 00              ??         00h
      ff0000033f 00              ??         00h
      ff00000340 00              ??         00h
      ff00000341 00              ??         00h
      ff00000342 00              ??         00h
      ff00000343 00              ??         00h
      ff00000344 00              ??         00h
      ff00000345 00              ??         00h
      ff00000346 00              ??         00h
      ff00000347 00              ??         00h
      ff00000348 00              ??         00h
      ff00000349 00              ??         00h
      ff0000034a 00              ??         00h
      ff0000034b 00              ??         00h
      ff0000034c 00              ??         00h
      ff0000034d 00              ??         00h
      ff0000034e 00              ??         00h
      ff0000034f 00              ??         00h
      ff00000350 00              ??         00h
      ff00000351 00              ??         00h
      ff00000352 00              ??         00h
      ff00000353 00              ??         00h
      ff00000354 00              ??         00h
      ff00000355 00              ??         00h
      ff00000356 00              ??         00h
      ff00000357 00              ??         00h
      ff00000358 00              ??         00h
      ff00000359 00              ??         00h
      ff0000035a 00              ??         00h
      ff0000035b 00              ??         00h
      ff0000035c 00              ??         00h
      ff0000035d 00              ??         00h
      ff0000035e 00              ??         00h
      ff0000035f 00              ??         00h
      ff00000360 00              ??         00h
      ff00000361 00              ??         00h
      ff00000362 00              ??         00h
      ff00000363 00              ??         00h
      ff00000364 00              ??         00h
      ff00000365 00              ??         00h
      ff00000366 00              ??         00h
      ff00000367 00              ??         00h
      ff00000368 00              ??         00h
      ff00000369 00              ??         00h
      ff0000036a 00              ??         00h
      ff0000036b 00              ??         00h
      ff0000036c 00              ??         00h
      ff0000036d 00              ??         00h
      ff0000036e 00              ??         00h
      ff0000036f 00              ??         00h
      ff00000370 00              ??         00h
      ff00000371 00              ??         00h
      ff00000372 00              ??         00h
      ff00000373 00              ??         00h
      ff00000374 00              ??         00h
      ff00000375 00              ??         00h
      ff00000376 00              ??         00h
      ff00000377 00              ??         00h
      ff00000378 00              ??         00h
      ff00000379 00              ??         00h
      ff0000037a 00              ??         00h
      ff0000037b 00              ??         00h
      ff0000037c 00              ??         00h
      ff0000037d 00              ??         00h
      ff0000037e 00              ??         00h
      ff0000037f 00              ??         00h
      ff00000380 00              ??         00h
      ff00000381 00              ??         00h
      ff00000382 00              ??         00h
      ff00000383 00              ??         00h
      ff00000384 00              ??         00h
      ff00000385 00              ??         00h
      ff00000386 00              ??         00h
      ff00000387 00              ??         00h
      ff00000388 00              ??         00h
      ff00000389 00              ??         00h
      ff0000038a 00              ??         00h
      ff0000038b 00              ??         00h
      ff0000038c 00              ??         00h
      ff0000038d 00              ??         00h
      ff0000038e 00              ??         00h
      ff0000038f 00              ??         00h
      ff00000390 00              ??         00h
      ff00000391 00              ??         00h
      ff00000392 00              ??         00h
      ff00000393 00              ??         00h
      ff00000394 00              ??         00h
      ff00000395 00              ??         00h
      ff00000396 00              ??         00h
      ff00000397 00              ??         00h
      ff00000398 00              ??         00h
      ff00000399 00              ??         00h
      ff0000039a 00              ??         00h
      ff0000039b 00              ??         00h
      ff0000039c 00              ??         00h
      ff0000039d 00              ??         00h
      ff0000039e 00              ??         00h
      ff0000039f 00              ??         00h
      ff000003a0 00              ??         00h
      ff000003a1 00              ??         00h
      ff000003a2 00              ??         00h
      ff000003a3 00              ??         00h
      ff000003a4 00              ??         00h
      ff000003a5 00              ??         00h
      ff000003a6 00              ??         00h
      ff000003a7 00              ??         00h
      ff000003a8 00              ??         00h
      ff000003a9 00              ??         00h
      ff000003aa 00              ??         00h
      ff000003ab 00              ??         00h
      ff000003ac 00              ??         00h
      ff000003ad 00              ??         00h
      ff000003ae 00              ??         00h
      ff000003af 00              ??         00h
      ff000003b0 00              ??         00h
      ff000003b1 00              ??         00h
      ff000003b2 00              ??         00h
      ff000003b3 00              ??         00h
      ff000003b4 00              ??         00h
      ff000003b5 00              ??         00h
      ff000003b6 00              ??         00h
      ff000003b7 00              ??         00h
      ff000003b8 00              ??         00h
      ff000003b9 00              ??         00h
      ff000003ba 00              ??         00h
      ff000003bb 00              ??         00h
      ff000003bc 00              ??         00h
      ff000003bd 00              ??         00h
      ff000003be 00              ??         00h
      ff000003bf 00              ??         00h
      ff000003c0 00              ??         00h
      ff000003c1 00              ??         00h
      ff000003c2 00              ??         00h
      ff000003c3 00              ??         00h
      ff000003c4 00              ??         00h
      ff000003c5 00              ??         00h
      ff000003c6 00              ??         00h
      ff000003c7 00              ??         00h
      ff000003c8 00              ??         00h
      ff000003c9 00              ??         00h
      ff000003ca 00              ??         00h
      ff000003cb 00              ??         00h
      ff000003cc 00              ??         00h
      ff000003cd 00              ??         00h
      ff000003ce 00              ??         00h
      ff000003cf 00              ??         00h
      ff000003d0 00              ??         00h
      ff000003d1 00              ??         00h
      ff000003d2 00              ??         00h
      ff000003d3 00              ??         00h
      ff000003d4 00              ??         00h
      ff000003d5 00              ??         00h
      ff000003d6 00              ??         00h
      ff000003d7 00              ??         00h
      ff000003d8 00              ??         00h
      ff000003d9 00              ??         00h
      ff000003da 00              ??         00h
      ff000003db 00              ??         00h
      ff000003dc 00              ??         00h
      ff000003dd 00              ??         00h
      ff000003de 00              ??         00h
      ff000003df 00              ??         00h
      ff000003e0 00              ??         00h
      ff000003e1 00              ??         00h
      ff000003e2 00              ??         00h
      ff000003e3 00              ??         00h
      ff000003e4 00              ??         00h
      ff000003e5 00              ??         00h
      ff000003e6 00              ??         00h
      ff000003e7 00              ??         00h
      ff000003e8 00              ??         00h
      ff000003e9 00              ??         00h
      ff000003ea 00              ??         00h
      ff000003eb 00              ??         00h
      ff000003ec 00              ??         00h
      ff000003ed 00              ??         00h
      ff000003ee 00              ??         00h
      ff000003ef 00              ??         00h
      ff000003f0 00              ??         00h
      ff000003f1 00              ??         00h
      ff000003f2 00              ??         00h
      ff000003f3 00              ??         00h
      ff000003f4 00              ??         00h
      ff000003f5 00              ??         00h
      ff000003f6 00              ??         00h
      ff000003f7 00              ??         00h
      ff000003f8 00              ??         00h
      ff000003f9 00              ??         00h
      ff000003fa 00              ??         00h
      ff000003fb 00              ??         00h
      ff000003fc 00              ??         00h
      ff000003fd 00              ??         00h
      ff000003fe 00              ??         00h
      ff000003ff 00              ??         00h
      ff00000400 00              ??         00h
      ff00000401 00              ??         00h
      ff00000402 00              ??         00h
      ff00000403 00              ??         00h
      ff00000404 00              ??         00h
      ff00000405 00              ??         00h
      ff00000406 00              ??         00h
      ff00000407 00              ??         00h
      ff00000408 00              ??         00h
      ff00000409 00              ??         00h
      ff0000040a 00              ??         00h
      ff0000040b 00              ??         00h
      ff0000040c 00              ??         00h
      ff0000040d 00              ??         00h
      ff0000040e 00              ??         00h
      ff0000040f 00              ??         00h
      ff00000410 00              ??         00h
      ff00000411 00              ??         00h
      ff00000412 00              ??         00h
      ff00000413 00              ??         00h
      ff00000414 00              ??         00h
      ff00000415 00              ??         00h
      ff00000416 00              ??         00h
      ff00000417 00              ??         00h
      ff00000418 00              ??         00h
      ff00000419 00              ??         00h
      ff0000041a 00              ??         00h
      ff0000041b 00              ??         00h
      ff0000041c 00              ??         00h
      ff0000041d 00              ??         00h
      ff0000041e 00              ??         00h
      ff0000041f 00              ??         00h
      ff00000420 00              ??         00h
      ff00000421 00              ??         00h
      ff00000422 00              ??         00h
      ff00000423 00              ??         00h
      ff00000424 00              ??         00h
      ff00000425 00              ??         00h
      ff00000426 00              ??         00h
      ff00000427 00              ??         00h
      ff00000428 00              ??         00h
      ff00000429 00              ??         00h
      ff0000042a 00              ??         00h
      ff0000042b 00              ??         00h
      ff0000042c 00              ??         00h
      ff0000042d 00              ??         00h
      ff0000042e 00              ??         00h
      ff0000042f 00              ??         00h
      ff00000430 00              ??         00h
      ff00000431 00              ??         00h
      ff00000432 00              ??         00h
      ff00000433 00              ??         00h
      ff00000434 00              ??         00h
      ff00000435 00              ??         00h
      ff00000436 00              ??         00h
      ff00000437 00              ??         00h
      ff00000438 00              ??         00h
      ff00000439 00              ??         00h
      ff0000043a 00              ??         00h
      ff0000043b 00              ??         00h
      ff0000043c 00              ??         00h
      ff0000043d 00              ??         00h
      ff0000043e 00              ??         00h
      ff0000043f 00              ??         00h
      ff00000440 00              ??         00h
      ff00000441 00              ??         00h
      ff00000442 00              ??         00h
      ff00000443 00              ??         00h
      ff00000444 00              ??         00h
      ff00000445 00              ??         00h
      ff00000446 00              ??         00h
      ff00000447 00              ??         00h
      ff00000448 00              ??         00h
      ff00000449 00              ??         00h
      ff0000044a 00              ??         00h
      ff0000044b 00              ??         00h
      ff0000044c 00              ??         00h
      ff0000044d 00              ??         00h
      ff0000044e 00              ??         00h
      ff0000044f 00              ??         00h
      ff00000450 00              ??         00h
      ff00000451 00              ??         00h
      ff00000452 00              ??         00h
      ff00000453 00              ??         00h
      ff00000454 00              ??         00h
      ff00000455 00              ??         00h
      ff00000456 00              ??         00h
      ff00000457 00              ??         00h
      ff00000458 00              ??         00h
      ff00000459 00              ??         00h
      ff0000045a 00              ??         00h
      ff0000045b 00              ??         00h
      ff0000045c 00              ??         00h
      ff0000045d 00              ??         00h
      ff0000045e 00              ??         00h
      ff0000045f 00              ??         00h
      ff00000460 00              ??         00h
      ff00000461 00              ??         00h
      ff00000462 00              ??         00h
      ff00000463 00              ??         00h
      ff00000464 00              ??         00h
      ff00000465 00              ??         00h
      ff00000466 00              ??         00h
      ff00000467 00              ??         00h
      ff00000468 00              ??         00h
      ff00000469 00              ??         00h
      ff0000046a 00              ??         00h
      ff0000046b 00              ??         00h
      ff0000046c 00              ??         00h
      ff0000046d 00              ??         00h
      ff0000046e 00              ??         00h
      ff0000046f 00              ??         00h
      ff00000470 00              ??         00h
      ff00000471 00              ??         00h
      ff00000472 00              ??         00h
      ff00000473 00              ??         00h
      ff00000474 00              ??         00h
      ff00000475 00              ??         00h
      ff00000476 00              ??         00h
      ff00000477 00              ??         00h
      ff00000478 00              ??         00h
      ff00000479 00              ??         00h
      ff0000047a 00              ??         00h
      ff0000047b 00              ??         00h
      ff0000047c 00              ??         00h
      ff0000047d 00              ??         00h
      ff0000047e 00              ??         00h
      ff0000047f 00              ??         00h
      ff00000480 00              ??         00h
      ff00000481 00              ??         00h
      ff00000482 00              ??         00h
      ff00000483 00              ??         00h
      ff00000484 00              ??         00h
      ff00000485 00              ??         00h
      ff00000486 00              ??         00h
      ff00000487 00              ??         00h
      ff00000488 00              ??         00h
      ff00000489 00              ??         00h
      ff0000048a 00              ??         00h
      ff0000048b 00              ??         00h
      ff0000048c 00              ??         00h
      ff0000048d 00              ??         00h
      ff0000048e 00              ??         00h
      ff0000048f 00              ??         00h
      ff00000490 00              ??         00h
      ff00000491 00              ??         00h
      ff00000492 00              ??         00h
      ff00000493 00              ??         00h
      ff00000494 00              ??         00h
      ff00000495 00              ??         00h
      ff00000496 00              ??         00h
      ff00000497 00              ??         00h
      ff00000498 00              ??         00h
      ff00000499 00              ??         00h
      ff0000049a 00              ??         00h
      ff0000049b 00              ??         00h
      ff0000049c 00              ??         00h
      ff0000049d 00              ??         00h
      ff0000049e 00              ??         00h
      ff0000049f 00              ??         00h
      ff000004a0 00              ??         00h
      ff000004a1 00              ??         00h
      ff000004a2 00              ??         00h
      ff000004a3 00              ??         00h
      ff000004a4 00              ??         00h
      ff000004a5 00              ??         00h
      ff000004a6 00              ??         00h
      ff000004a7 00              ??         00h
      ff000004a8 00              ??         00h
      ff000004a9 00              ??         00h
      ff000004aa 00              ??         00h
      ff000004ab 00              ??         00h
      ff000004ac 00              ??         00h
      ff000004ad 00              ??         00h
      ff000004ae 00              ??         00h
      ff000004af 00              ??         00h
      ff000004b0 00              ??         00h
      ff000004b1 00              ??         00h
      ff000004b2 00              ??         00h
      ff000004b3 00              ??         00h
      ff000004b4 00              ??         00h
      ff000004b5 00              ??         00h
      ff000004b6 00              ??         00h
      ff000004b7 00              ??         00h
      ff000004b8 00              ??         00h
      ff000004b9 00              ??         00h
      ff000004ba 00              ??         00h
      ff000004bb 00              ??         00h
      ff000004bc 00              ??         00h
      ff000004bd 00              ??         00h
      ff000004be 00              ??         00h
      ff000004bf 00              ??         00h
      ff000004c0 00              ??         00h
      ff000004c1 00              ??         00h
      ff000004c2 00              ??         00h
      ff000004c3 00              ??         00h
      ff000004c4 00              ??         00h
      ff000004c5 00              ??         00h
      ff000004c6 00              ??         00h
      ff000004c7 00              ??         00h
      ff000004c8 00              ??         00h
      ff000004c9 00              ??         00h
      ff000004ca 00              ??         00h
      ff000004cb 00              ??         00h
      ff000004cc 00              ??         00h
      ff000004cd 00              ??         00h
      ff000004ce 00              ??         00h
      ff000004cf 00              ??         00h
      ff000004d0 00              ??         00h
      ff000004d1 00              ??         00h
      ff000004d2 00              ??         00h
      ff000004d3 00              ??         00h
      ff000004d4 00              ??         00h
      ff000004d5 00              ??         00h
      ff000004d6 00              ??         00h
      ff000004d7 00              ??         00h
      ff000004d8 00              ??         00h
      ff000004d9 00              ??         00h
      ff000004da 00              ??         00h
      ff000004db 00              ??         00h
      ff000004dc 00              ??         00h
      ff000004dd 00              ??         00h
      ff000004de 00              ??         00h
      ff000004df 00              ??         00h
      ff000004e0 00              ??         00h
      ff000004e1 00              ??         00h
      ff000004e2 00              ??         00h
      ff000004e3 00              ??         00h
      ff000004e4 00              ??         00h
      ff000004e5 00              ??         00h
      ff000004e6 00              ??         00h
      ff000004e7 00              ??         00h
      ff000004e8 00              ??         00h
      ff000004e9 00              ??         00h
      ff000004ea 00              ??         00h
      ff000004eb 00              ??         00h
      ff000004ec 00              ??         00h
      ff000004ed 00              ??         00h
      ff000004ee 00              ??         00h
      ff000004ef 00              ??         00h
      ff000004f0 00              ??         00h
      ff000004f1 00              ??         00h
      ff000004f2 00              ??         00h
      ff000004f3 00              ??         00h
      ff000004f4 00              ??         00h
      ff000004f5 00              ??         00h
      ff000004f6 00              ??         00h
      ff000004f7 00              ??         00h
      ff000004f8 00              ??         00h
      ff000004f9 00              ??         00h
      ff000004fa 00              ??         00h
      ff000004fb 00              ??         00h
      ff000004fc 00              ??         00h
      ff000004fd 00              ??         00h
      ff000004fe 00              ??         00h
      ff000004ff 00              ??         00h
      ff00000500 00              ??         00h
      ff00000501 00              ??         00h
      ff00000502 00              ??         00h
      ff00000503 00              ??         00h
      ff00000504 00              ??         00h
      ff00000505 00              ??         00h
      ff00000506 00              ??         00h
      ff00000507 00              ??         00h
      ff00000508 00              ??         00h
      ff00000509 00              ??         00h
      ff0000050a 00              ??         00h
      ff0000050b 00              ??         00h
      ff0000050c 00              ??         00h
      ff0000050d 00              ??         00h
      ff0000050e 00              ??         00h
      ff0000050f 00              ??         00h
      ff00000510 00              ??         00h
      ff00000511 00              ??         00h
      ff00000512 00              ??         00h
      ff00000513 00              ??         00h
      ff00000514 00              ??         00h
      ff00000515 00              ??         00h
      ff00000516 00              ??         00h
      ff00000517 00              ??         00h
      ff00000518 00              ??         00h
      ff00000519 00              ??         00h
      ff0000051a 00              ??         00h
      ff0000051b 00              ??         00h
      ff0000051c 00              ??         00h
      ff0000051d 00              ??         00h
      ff0000051e 00              ??         00h
      ff0000051f 00              ??         00h
      ff00000520 00              ??         00h
      ff00000521 00              ??         00h
      ff00000522 00              ??         00h
      ff00000523 00              ??         00h
      ff00000524 00              ??         00h
      ff00000525 00              ??         00h
      ff00000526 00              ??         00h
      ff00000527 00              ??         00h
      ff00000528 00              ??         00h
      ff00000529 00              ??         00h
      ff0000052a 00              ??         00h
      ff0000052b 00              ??         00h
      ff0000052c 00              ??         00h
      ff0000052d 00              ??         00h
      ff0000052e 00              ??         00h
      ff0000052f 00              ??         00h
      ff00000530 00              ??         00h
      ff00000531 00              ??         00h
      ff00000532 00              ??         00h
      ff00000533 00              ??         00h
      ff00000534 00              ??         00h
      ff00000535 00              ??         00h
      ff00000536 00              ??         00h
      ff00000537 00              ??         00h
      ff00000538 00              ??         00h
      ff00000539 00              ??         00h
      ff0000053a 00              ??         00h
      ff0000053b 00              ??         00h
      ff0000053c 00              ??         00h
      ff0000053d 00              ??         00h
      ff0000053e 00              ??         00h
      ff0000053f 00              ??         00h
      ff00000540 00              ??         00h
      ff00000541 00              ??         00h
      ff00000542 00              ??         00h
      ff00000543 00              ??         00h
      ff00000544 00              ??         00h
      ff00000545 00              ??         00h
      ff00000546 00              ??         00h
      ff00000547 00              ??         00h
      ff00000548 00              ??         00h
      ff00000549 00              ??         00h
      ff0000054a 00              ??         00h
      ff0000054b 00              ??         00h
      ff0000054c 00              ??         00h
      ff0000054d 00              ??         00h
      ff0000054e 00              ??         00h
      ff0000054f 00              ??         00h
      ff00000550 00              ??         00h
      ff00000551 00              ??         00h
      ff00000552 00              ??         00h
      ff00000553 00              ??         00h
      ff00000554 00              ??         00h
      ff00000555 00              ??         00h
      ff00000556 00              ??         00h
      ff00000557 00              ??         00h
      ff00000558 00              ??         00h
      ff00000559 00              ??         00h
      ff0000055a 00              ??         00h
      ff0000055b 00              ??         00h
      ff0000055c 00              ??         00h
      ff0000055d 00              ??         00h
      ff0000055e 00              ??         00h
      ff0000055f 00              ??         00h
      ff00000560 00              ??         00h
      ff00000561 00              ??         00h
      ff00000562 00              ??         00h
      ff00000563 00              ??         00h
      ff00000564 00              ??         00h
      ff00000565 00              ??         00h
      ff00000566 00              ??         00h
      ff00000567 00              ??         00h
      ff00000568 00              ??         00h
      ff00000569 00              ??         00h
      ff0000056a 00              ??         00h
      ff0000056b 00              ??         00h
      ff0000056c 00              ??         00h
      ff0000056d 00              ??         00h
      ff0000056e 00              ??         00h
      ff0000056f 00              ??         00h
      ff00000570 00              ??         00h
      ff00000571 00              ??         00h
      ff00000572 00              ??         00h
      ff00000573 00              ??         00h
      ff00000574 00              ??         00h
      ff00000575 00              ??         00h
      ff00000576 00              ??         00h
      ff00000577 00              ??         00h
      ff00000578 00              ??         00h
      ff00000579 00              ??         00h
      ff0000057a 00              ??         00h
      ff0000057b 00              ??         00h
      ff0000057c 00              ??         00h
      ff0000057d 00              ??         00h
      ff0000057e 00              ??         00h
      ff0000057f 00              ??         00h
      ff00000580 00              ??         00h
      ff00000581 00              ??         00h
      ff00000582 00              ??         00h
      ff00000583 00              ??         00h
      ff00000584 00              ??         00h
      ff00000585 00              ??         00h
      ff00000586 00              ??         00h
      ff00000587 00              ??         00h
      ff00000588 00              ??         00h
      ff00000589 00              ??         00h
      ff0000058a 00              ??         00h
      ff0000058b 00              ??         00h
      ff0000058c 00              ??         00h
      ff0000058d 00              ??         00h
      ff0000058e 00              ??         00h
      ff0000058f 00              ??         00h
      ff00000590 00              ??         00h
      ff00000591 00              ??         00h
      ff00000592 00              ??         00h
      ff00000593 00              ??         00h
      ff00000594 00              ??         00h
      ff00000595 00              ??         00h
      ff00000596 00              ??         00h
      ff00000597 00              ??         00h
      ff00000598 00              ??         00h
      ff00000599 00              ??         00h
      ff0000059a 00              ??         00h
      ff0000059b 00              ??         00h
      ff0000059c 00              ??         00h
      ff0000059d 00              ??         00h
      ff0000059e 00              ??         00h
      ff0000059f 00              ??         00h
      ff000005a0 00              ??         00h
      ff000005a1 00              ??         00h
      ff000005a2 00              ??         00h
      ff000005a3 00              ??         00h
      ff000005a4 00              ??         00h
      ff000005a5 00              ??         00h
      ff000005a6 00              ??         00h
      ff000005a7 00              ??         00h
      ff000005a8 00              ??         00h
      ff000005a9 00              ??         00h
      ff000005aa 00              ??         00h
      ff000005ab 00              ??         00h
      ff000005ac 00              ??         00h
      ff000005ad 00              ??         00h
      ff000005ae 00              ??         00h
      ff000005af 00              ??         00h
      ff000005b0 00              ??         00h
      ff000005b1 00              ??         00h
      ff000005b2 00              ??         00h
      ff000005b3 00              ??         00h
      ff000005b4 00              ??         00h
      ff000005b5 00              ??         00h
      ff000005b6 00              ??         00h
      ff000005b7 00              ??         00h
      ff000005b8 00              ??         00h
      ff000005b9 00              ??         00h
      ff000005ba 00              ??         00h
      ff000005bb 00              ??         00h
      ff000005bc 00              ??         00h
      ff000005bd 00              ??         00h
      ff000005be 00              ??         00h
      ff000005bf 00              ??         00h
      ff000005c0 00              ??         00h
      ff000005c1 00              ??         00h
      ff000005c2 00              ??         00h
      ff000005c3 00              ??         00h
      ff000005c4 00              ??         00h
      ff000005c5 00              ??         00h
      ff000005c6 00              ??         00h
      ff000005c7 00              ??         00h
      ff000005c8 00              ??         00h
      ff000005c9 00              ??         00h
      ff000005ca 00              ??         00h
      ff000005cb 00              ??         00h
      ff000005cc 00              ??         00h
      ff000005cd 00              ??         00h
      ff000005ce 00              ??         00h
      ff000005cf 00              ??         00h
      ff000005d0 00              ??         00h
      ff000005d1 00              ??         00h
      ff000005d2 00              ??         00h
      ff000005d3 00              ??         00h
      ff000005d4 00              ??         00h
      ff000005d5 00              ??         00h
      ff000005d6 00              ??         00h
      ff000005d7 00              ??         00h
      ff000005d8 00              ??         00h
      ff000005d9 00              ??         00h
      ff000005da 00              ??         00h
      ff000005db 00              ??         00h
      ff000005dc 00              ??         00h
      ff000005dd 00              ??         00h
      ff000005de 00              ??         00h
      ff000005df 00              ??         00h
      ff000005e0 00              ??         00h
      ff000005e1 00              ??         00h
      ff000005e2 00              ??         00h
      ff000005e3 00              ??         00h
      ff000005e4 00              ??         00h
      ff000005e5 00              ??         00h
      ff000005e6 00              ??         00h
      ff000005e7 00              ??         00h
      ff000005e8 00              ??         00h
      ff000005e9 00              ??         00h
      ff000005ea 00              ??         00h
      ff000005eb 00              ??         00h
      ff000005ec 00              ??         00h
      ff000005ed 00              ??         00h
      ff000005ee 00              ??         00h
      ff000005ef 00              ??         00h
      ff000005f0 00              ??         00h
      ff000005f1 00              ??         00h
      ff000005f2 00              ??         00h
      ff000005f3 00              ??         00h
      ff000005f4 00              ??         00h
      ff000005f5 00              ??         00h
      ff000005f6 00              ??         00h
      ff000005f7 00              ??         00h
      ff000005f8 00              ??         00h
      ff000005f9 00              ??         00h
      ff000005fa 00              ??         00h
      ff000005fb 00              ??         00h
      ff000005fc 00              ??         00h
      ff000005fd 00              ??         00h
      ff000005fe 00              ??         00h
      ff000005ff 00              ??         00h
      ff00000600 00              ??         00h
      ff00000601 00              ??         00h
      ff00000602 00              ??         00h
      ff00000603 00              ??         00h
      ff00000604 00              ??         00h
      ff00000605 00              ??         00h
      ff00000606 00              ??         00h
      ff00000607 00              ??         00h
      ff00000608 00              ??         00h
      ff00000609 00              ??         00h
      ff0000060a 00              ??         00h
      ff0000060b 00              ??         00h
      ff0000060c 00              ??         00h
      ff0000060d 00              ??         00h
      ff0000060e 00              ??         00h
      ff0000060f 00              ??         00h
      ff00000610 00              ??         00h
      ff00000611 00              ??         00h
      ff00000612 00              ??         00h
      ff00000613 00              ??         00h
      ff00000614 00              ??         00h
      ff00000615 00              ??         00h
      ff00000616 00              ??         00h
      ff00000617 00              ??         00h
      ff00000618 00              ??         00h
      ff00000619 00              ??         00h
      ff0000061a 00              ??         00h
      ff0000061b 00              ??         00h
      ff0000061c 00              ??         00h
      ff0000061d 00              ??         00h
      ff0000061e 00              ??         00h
      ff0000061f 00              ??         00h
      ff00000620 00              ??         00h
      ff00000621 00              ??         00h
      ff00000622 00              ??         00h
      ff00000623 00              ??         00h
      ff00000624 00              ??         00h
      ff00000625 00              ??         00h
      ff00000626 00              ??         00h
      ff00000627 00              ??         00h
      ff00000628 00              ??         00h
      ff00000629 00              ??         00h
      ff0000062a 00              ??         00h
      ff0000062b 00              ??         00h
      ff0000062c 00              ??         00h
      ff0000062d 00              ??         00h
      ff0000062e 00              ??         00h
      ff0000062f 00              ??         00h
      ff00000630 00              ??         00h
      ff00000631 00              ??         00h
      ff00000632 00              ??         00h
      ff00000633 00              ??         00h
      ff00000634 00              ??         00h
      ff00000635 00              ??         00h
      ff00000636 00              ??         00h
      ff00000637 00              ??         00h
      ff00000638 00              ??         00h
      ff00000639 00              ??         00h
      ff0000063a 00              ??         00h
      ff0000063b 00              ??         00h
      ff0000063c 00              ??         00h
      ff0000063d 00              ??         00h
      ff0000063e 00              ??         00h
      ff0000063f 00              ??         00h
      ff00000640 00              ??         00h
      ff00000641 00              ??         00h
      ff00000642 00              ??         00h
      ff00000643 00              ??         00h
      ff00000644 00              ??         00h
      ff00000645 00              ??         00h
      ff00000646 00              ??         00h
      ff00000647 00              ??         00h
      ff00000648 00              ??         00h
      ff00000649 00              ??         00h
      ff0000064a 00              ??         00h
      ff0000064b 00              ??         00h
      ff0000064c 00              ??         00h
      ff0000064d 00              ??         00h
      ff0000064e 00              ??         00h
      ff0000064f 00              ??         00h
      ff00000650 00              ??         00h
      ff00000651 00              ??         00h
      ff00000652 00              ??         00h
      ff00000653 00              ??         00h
      ff00000654 00              ??         00h
      ff00000655 00              ??         00h
      ff00000656 00              ??         00h
      ff00000657 00              ??         00h
      ff00000658 00              ??         00h
      ff00000659 00              ??         00h
      ff0000065a 00              ??         00h
      ff0000065b 00              ??         00h
      ff0000065c 00              ??         00h
      ff0000065d 00              ??         00h
      ff0000065e 00              ??         00h
      ff0000065f 00              ??         00h
      ff00000660 00              ??         00h
      ff00000661 00              ??         00h
      ff00000662 00              ??         00h
      ff00000663 00              ??         00h
      ff00000664 00              ??         00h
      ff00000665 00              ??         00h
      ff00000666 00              ??         00h
      ff00000667 00              ??         00h
      ff00000668 00              ??         00h
      ff00000669 00              ??         00h
      ff0000066a 00              ??         00h
      ff0000066b 00              ??         00h
      ff0000066c 00              ??         00h
      ff0000066d 00              ??         00h
      ff0000066e 00              ??         00h
      ff0000066f 00              ??         00h
      ff00000670 00              ??         00h
      ff00000671 00              ??         00h
      ff00000672 00              ??         00h
      ff00000673 00              ??         00h
      ff00000674 00              ??         00h
      ff00000675 00              ??         00h
      ff00000676 00              ??         00h
      ff00000677 00              ??         00h
      ff00000678 00              ??         00h
      ff00000679 00              ??         00h
      ff0000067a 00              ??         00h
      ff0000067b 00              ??         00h
      ff0000067c 00              ??         00h
      ff0000067d 00              ??         00h
      ff0000067e 00              ??         00h
      ff0000067f 00              ??         00h
      ff00000680 00              ??         00h
      ff00000681 00              ??         00h
      ff00000682 00              ??         00h
      ff00000683 00              ??         00h
      ff00000684 00              ??         00h
      ff00000685 00              ??         00h
      ff00000686 00              ??         00h
      ff00000687 00              ??         00h
      ff00000688 00              ??         00h
      ff00000689 00              ??         00h
      ff0000068a 00              ??         00h
      ff0000068b 00              ??         00h
      ff0000068c 00              ??         00h
      ff0000068d 00              ??         00h
      ff0000068e 00              ??         00h
      ff0000068f 00              ??         00h
      ff00000690 00              ??         00h
      ff00000691 00              ??         00h
      ff00000692 00              ??         00h
      ff00000693 00              ??         00h
      ff00000694 00              ??         00h
      ff00000695 00              ??         00h
      ff00000696 00              ??         00h
      ff00000697 00              ??         00h
      ff00000698 00              ??         00h
      ff00000699 00              ??         00h
      ff0000069a 00              ??         00h
      ff0000069b 00              ??         00h
      ff0000069c 00              ??         00h
      ff0000069d 00              ??         00h
      ff0000069e 00              ??         00h
      ff0000069f 00              ??         00h
      ff000006a0 00              ??         00h
      ff000006a1 00              ??         00h
      ff000006a2 00              ??         00h
      ff000006a3 00              ??         00h
      ff000006a4 00              ??         00h
      ff000006a5 00              ??         00h
      ff000006a6 00              ??         00h
      ff000006a7 00              ??         00h
      ff000006a8 00              ??         00h
      ff000006a9 00              ??         00h
      ff000006aa 00              ??         00h
      ff000006ab 00              ??         00h
      ff000006ac 00              ??         00h
      ff000006ad 00              ??         00h
      ff000006ae 00              ??         00h
      ff000006af 00              ??         00h
      ff000006b0 00              ??         00h
      ff000006b1 00              ??         00h
      ff000006b2 00              ??         00h
      ff000006b3 00              ??         00h
      ff000006b4 00              ??         00h
      ff000006b5 00              ??         00h
      ff000006b6 00              ??         00h
      ff000006b7 00              ??         00h
      ff000006b8 00              ??         00h
      ff000006b9 00              ??         00h
      ff000006ba 00              ??         00h
      ff000006bb 00              ??         00h
      ff000006bc 00              ??         00h
      ff000006bd 00              ??         00h
      ff000006be 00              ??         00h
      ff000006bf 00              ??         00h
      ff000006c0 00              ??         00h
      ff000006c1 00              ??         00h
      ff000006c2 00              ??         00h
      ff000006c3 00              ??         00h
      ff000006c4 00              ??         00h
      ff000006c5 00              ??         00h
      ff000006c6 00              ??         00h
      ff000006c7 00              ??         00h
      ff000006c8 00              ??         00h
      ff000006c9 00              ??         00h
      ff000006ca 00              ??         00h
      ff000006cb 00              ??         00h
      ff000006cc 00              ??         00h
      ff000006cd 00              ??         00h
      ff000006ce 00              ??         00h
      ff000006cf 00              ??         00h
      ff000006d0 00              ??         00h
      ff000006d1 00              ??         00h
      ff000006d2 00              ??         00h
      ff000006d3 00              ??         00h
      ff000006d4 00              ??         00h
      ff000006d5 00              ??         00h
      ff000006d6 00              ??         00h
      ff000006d7 00              ??         00h
      ff000006d8 00              ??         00h
      ff000006d9 00              ??         00h
      ff000006da 00              ??         00h
      ff000006db 00              ??         00h
      ff000006dc 00              ??         00h
      ff000006dd 00              ??         00h
      ff000006de 00              ??         00h
      ff000006df 00              ??         00h
      ff000006e0 00              ??         00h
      ff000006e1 00              ??         00h
      ff000006e2 00              ??         00h
      ff000006e3 00              ??         00h
      ff000006e4 00              ??         00h
      ff000006e5 00              ??         00h
      ff000006e6 00              ??         00h
      ff000006e7 00              ??         00h
      ff000006e8 00              ??         00h
      ff000006e9 00              ??         00h
      ff000006ea 00              ??         00h
      ff000006eb 00              ??         00h
      ff000006ec 00              ??         00h
      ff000006ed 00              ??         00h
      ff000006ee 00              ??         00h
      ff000006ef 00              ??         00h
      ff000006f0 00              ??         00h
      ff000006f1 00              ??         00h
      ff000006f2 00              ??         00h
      ff000006f3 00              ??         00h
      ff000006f4 00              ??         00h
      ff000006f5 00              ??         00h
      ff000006f6 00              ??         00h
      ff000006f7 00              ??         00h
      ff000006f8 00              ??         00h
      ff000006f9 00              ??         00h
      ff000006fa 00              ??         00h
      ff000006fb 00              ??         00h
      ff000006fc 00              ??         00h
      ff000006fd 00              ??         00h
      ff000006fe 00              ??         00h
      ff000006ff 00              ??         00h
      ff00000700 00              ??         00h
      ff00000701 00              ??         00h
      ff00000702 00              ??         00h
      ff00000703 00              ??         00h
      ff00000704 00              ??         00h
      ff00000705 00              ??         00h
      ff00000706 00              ??         00h
      ff00000707 00              ??         00h
      ff00000708 00              ??         00h
      ff00000709 00              ??         00h
      ff0000070a 00              ??         00h
      ff0000070b 00              ??         00h
      ff0000070c 00              ??         00h
      ff0000070d 00              ??         00h
      ff0000070e 00              ??         00h
      ff0000070f 00              ??         00h
      ff00000710 00              ??         00h
      ff00000711 00              ??         00h
      ff00000712 00              ??         00h
      ff00000713 00              ??         00h
      ff00000714 00              ??         00h
      ff00000715 00              ??         00h
      ff00000716 00              ??         00h
      ff00000717 00              ??         00h
      ff00000718 00              ??         00h
      ff00000719 00              ??         00h
      ff0000071a 00              ??         00h
      ff0000071b 00              ??         00h
      ff0000071c 00              ??         00h
      ff0000071d 00              ??         00h
      ff0000071e 00              ??         00h
      ff0000071f 00              ??         00h
      ff00000720 00              ??         00h
      ff00000721 00              ??         00h
      ff00000722 00              ??         00h
      ff00000723 00              ??         00h
      ff00000724 00              ??         00h
      ff00000725 00              ??         00h
      ff00000726 00              ??         00h
      ff00000727 00              ??         00h
      ff00000728 00              ??         00h
      ff00000729 00              ??         00h
      ff0000072a 00              ??         00h
      ff0000072b 00              ??         00h
      ff0000072c 00              ??         00h
      ff0000072d 00              ??         00h
      ff0000072e 00              ??         00h
      ff0000072f 00              ??         00h
      ff00000730 00              ??         00h
      ff00000731 00              ??         00h
      ff00000732 00              ??         00h
      ff00000733 00              ??         00h
      ff00000734 00              ??         00h
      ff00000735 00              ??         00h
      ff00000736 00              ??         00h
      ff00000737 00              ??         00h
      ff00000738 00              ??         00h
      ff00000739 00              ??         00h
      ff0000073a 00              ??         00h
      ff0000073b 00              ??         00h
      ff0000073c 00              ??         00h
      ff0000073d 00              ??         00h
      ff0000073e 00              ??         00h
      ff0000073f 00              ??         00h
      ff00000740 00              ??         00h
      ff00000741 00              ??         00h
      ff00000742 00              ??         00h
      ff00000743 00              ??         00h
      ff00000744 00              ??         00h
      ff00000745 00              ??         00h
      ff00000746 00              ??         00h
      ff00000747 00              ??         00h
                             GuaranteedStackBytes
      ff00000748 00  00  00  00    ddw        0h
      ff0000074c 00              ??         00h
      ff0000074d 00              ??         00h
      ff0000074e 00              ??         00h
      ff0000074f 00              ??         00h
      ff00000750 00              ??         00h
      ff00000751 00              ??         00h
      ff00000752 00              ??         00h
      ff00000753 00              ??         00h
      ff00000754 00              ??         00h
      ff00000755 00              ??         00h
      ff00000756 00              ??         00h
      ff00000757 00              ??         00h
      ff00000758 00              ??         00h
      ff00000759 00              ??         00h
      ff0000075a 00              ??         00h
      ff0000075b 00              ??         00h
      ff0000075c 00              ??         00h
      ff0000075d 00              ??         00h
      ff0000075e 00              ??         00h
      ff0000075f 00              ??         00h
      ff00000760 00              ??         00h
      ff00000761 00              ??         00h
      ff00000762 00              ??         00h
      ff00000763 00              ??         00h
      ff00000764 00              ??         00h
      ff00000765 00              ??         00h
      ff00000766 00              ??         00h
      ff00000767 00              ??         00h
      ff00000768 00              ??         00h
      ff00000769 00              ??         00h
      ff0000076a 00              ??         00h
      ff0000076b 00              ??         00h
      ff0000076c 00              ??         00h
      ff0000076d 00              ??         00h
      ff0000076e 00              ??         00h
      ff0000076f 00              ??         00h
      ff00000770 00              ??         00h
      ff00000771 00              ??         00h
      ff00000772 00              ??         00h
      ff00000773 00              ??         00h
      ff00000774 00              ??         00h
      ff00000775 00              ??         00h
      ff00000776 00              ??         00h
      ff00000777 00              ??         00h
      ff00000778 00              ??         00h
      ff00000779 00              ??         00h
      ff0000077a 00              ??         00h
      ff0000077b 00              ??         00h
      ff0000077c 00              ??         00h
      ff0000077d 00              ??         00h
      ff0000077e 00              ??         00h
      ff0000077f 00              ??         00h
      ff00000780 00              ??         00h
      ff00000781 00              ??         00h
      ff00000782 00              ??         00h
      ff00000783 00              ??         00h
      ff00000784 00              ??         00h
      ff00000785 00              ??         00h
      ff00000786 00              ??         00h
      ff00000787 00              ??         00h
      ff00000788 00              ??         00h
      ff00000789 00              ??         00h
      ff0000078a 00              ??         00h
      ff0000078b 00              ??         00h
      ff0000078c 00              ??         00h
      ff0000078d 00              ??         00h
      ff0000078e 00              ??         00h
      ff0000078f 00              ??         00h
      ff00000790 00              ??         00h
      ff00000791 00              ??         00h
      ff00000792 00              ??         00h
      ff00000793 00              ??         00h
      ff00000794 00              ??         00h
      ff00000795 00              ??         00h
      ff00000796 00              ??         00h
      ff00000797 00              ??         00h
      ff00000798 00              ??         00h
      ff00000799 00              ??         00h
      ff0000079a 00              ??         00h
      ff0000079b 00              ??         00h
      ff0000079c 00              ??         00h
      ff0000079d 00              ??         00h
      ff0000079e 00              ??         00h
      ff0000079f 00              ??         00h
      ff000007a0 00              ??         00h
      ff000007a1 00              ??         00h
      ff000007a2 00              ??         00h
      ff000007a3 00              ??         00h
      ff000007a4 00              ??         00h
      ff000007a5 00              ??         00h
      ff000007a6 00              ??         00h
      ff000007a7 00              ??         00h
      ff000007a8 00              ??         00h
      ff000007a9 00              ??         00h
      ff000007aa 00              ??         00h
      ff000007ab 00              ??         00h
      ff000007ac 00              ??         00h
      ff000007ad 00              ??         00h
      ff000007ae 00              ??         00h
      ff000007af 00              ??         00h
      ff000007b0 00              ??         00h
      ff000007b1 00              ??         00h
      ff000007b2 00              ??         00h
      ff000007b3 00              ??         00h
      ff000007b4 00              ??         00h
      ff000007b5 00              ??         00h
      ff000007b6 00              ??         00h
      ff000007b7 00              ??         00h
      ff000007b8 00              ??         00h
      ff000007b9 00              ??         00h
      ff000007ba 00              ??         00h
      ff000007bb 00              ??         00h
      ff000007bc 00              ??         00h
      ff000007bd 00              ??         00h
      ff000007be 00              ??         00h
      ff000007bf 00              ??         00h
      ff000007c0 00              ??         00h
      ff000007c1 00              ??         00h
      ff000007c2 00              ??         00h
      ff000007c3 00              ??         00h
      ff000007c4 00              ??         00h
      ff000007c5 00              ??         00h
      ff000007c6 00              ??         00h
      ff000007c7 00              ??         00h
      ff000007c8 00              ??         00h
      ff000007c9 00              ??         00h
      ff000007ca 00              ??         00h
      ff000007cb 00              ??         00h
      ff000007cc 00              ??         00h
      ff000007cd 00              ??         00h
      ff000007ce 00              ??         00h
      ff000007cf 00              ??         00h
      ff000007d0 00              ??         00h
      ff000007d1 00              ??         00h
      ff000007d2 00              ??         00h
      ff000007d3 00              ??         00h
      ff000007d4 00              ??         00h
      ff000007d5 00              ??         00h
      ff000007d6 00              ??         00h
      ff000007d7 00              ??         00h
                             RealClientId
      ff000007d8 00  00  00       CLIENT_ID
                 00  00  00 
                 00  00  00 
                             GdiCachedProcessHandle
      ff000007e8 00  00  00       void *     00000000
                 00  00  00 
                 00  00
                             GdiClientPID
      ff000007f0 00  00  00  00    ddw        0h
                             GdiCLientTID
      ff000007f4 00  00  00  00    ddw        0h
                             GdiThreadLocalInfo
      ff000007f8 00  00  00       void *     00000000
                 00  00  00 
                 00  00
                             Win32ClientInfo
      ff00000800 00  00  00       void *[6
                 00  00  00 
                 00  00  00 
                             glDispatchTable
      ff000009f0 00  00  00       void *[2
                 00  00  00 
                 00  00  00 
                             glReserved1
      ff00001138 00  00  00       void *[2
                 00  00  00 
                 00  00  00 
                             glReserved2
      ff00001220 00  00  00       void *     00000000
                 00  00  00 
                 00  00
                             glSectionInfo
      ff00001228 00  00  00       void *     00000000
                 00  00  00 
                 00  00
                             glSection
      ff00001230 00  00  00       void *     00000000
                 00  00  00 
                 00  00
                             glTable
      ff00001238 00  00  00       void *     00000000
                 00  00  00 
                 00  00
                             glCurrentRC
      ff00001240 00  00  00       void *     00000000
                 00  00  00 
                 00  00
                             glContext
      ff00001248 00  00  00       void *     00000000
                 00  00  00 
                 00  00
                             LastStatusValue
      ff00001250 00  00  00  00    ddw        0h
      ff00001254 00              ??         00h
      ff00001255 00              ??         00h
      ff00001256 00              ??         00h
      ff00001257 00              ??         00h
      ff00001258 00              ??         00h
      ff00001259 00              ??         00h
      ff0000125a 00              ??         00h
      ff0000125b 00              ??         00h
      ff0000125c 00              ??         00h
      ff0000125d 00              ??         00h
      ff0000125e 00              ??         00h
      ff0000125f 00              ??         00h
      ff00001260 00              ??         00h
      ff00001261 00              ??         00h
      ff00001262 00              ??         00h
      ff00001263 00              ??         00h
      ff00001264 00              ??         00h
      ff00001265 00              ??         00h
      ff00001266 00              ??         00h
      ff00001267 00              ??         00h
                             StaticUnicodeBuffer
      ff00001268 00  00  00       wchar16[   u""
                 00  00  00 
                 00  00  00 
      ff00001472 00              ??         00h
      ff00001473 00              ??         00h
      ff00001474 00              ??         00h
      ff00001475 00              ??         00h
      ff00001476 00              ??         00h
      ff00001477 00              ??         00h
                             DeallocationStack
      ff00001478 00  00  00       void *     00000000
                 00  00  00 
                 00  00
                             TlsSlots
      ff00001480 00  00  00       void *[6
                 00  00  00 
                 00  00  00 
                             TlsLinks.Flink
      ff00001680 00  00  00       void *     00000000
                 00  00  00 
                 00  00
                             TlsLinks.Blink
      ff00001688 00  00  00       void *     00000000
                 00  00  00 
                 00  00
                             Vdm
      ff00001690 00  00  00       void *     00000000
                 00  00  00 
                 00  00
                             ReservedForNtRpc
      ff00001698 00  00  00       void *     00000000
                 00  00  00 
                 00  00
                             DbgSsReserved
      ff000016a0 00  00  00       void *[2]
                 00  00  00 
                 00  00  00 
                             HardErrorMode
      ff000016b0 00  00  00  00    ddw        0h
      ff000016b4 00              ??         00h
      ff000016b5 00              ??         00h
      ff000016b6 00              ??         00h
      ff000016b7 00              ??         00h
                             Instrumentation
      ff000016b8 00  00  00       void *[1
                 00  00  00 
                 00  00  00 
                             ActivityId
      ff00001710 00  00  00       GUID       00000000-0000-0000-0000-000000000000
                 00  00  00 
                 00  00  00 
                             SubProcessTag
      ff00001720 00  00  00       void *     00000000
                 00  00  00 
                 00  00
                             EtwLocalData
      ff00001728 00  00  00       void *     00000000
                 00  00  00 
                 00  00
                             EtwTraceData
      ff00001730 00  00  00       void *     00000000
                 00  00  00 
                 00  00
                             WinSockData
      ff00001738 00  00  00       void *     00000000
                 00  00  00 
                 00  00
                             GdiBatchCount
      ff00001740 00  00  00  00    ddw        0h
                             IdealProcessorValue
      ff00001744 00  00  00  00    ddw        0h
      ff00001748 00              ??         00h
      ff00001749 00              ??         00h
      ff0000174a 00              ??         00h
      ff0000174b 00              ??         00h
      ff0000174c 00              ??         00h
      ff0000174d 00              ??         00h
      ff0000174e 00              ??         00h
      ff0000174f 00              ??         00h
                             ReservedForPerf
      ff00001750 00  00  00       void *     00000000
                 00  00  00 
                 00  00
                             ReservedForOle
      ff00001758 00  00  00       void *     00000000
                 00  00  00 
                 00  00
                             WaitingOnLoaderLock
      ff00001760 00  00  00  00    ddw        0h
      ff00001764 00              ??         00h
      ff00001765 00              ??         00h
      ff00001766 00              ??         00h
      ff00001767 00              ??         00h
                             SavedPriorityState
      ff00001768 00  00  00       void *     00000000
                 00  00  00 
                 00  00
                             SoftPatchPtr1
      ff00001770 00  00  00       void *     00000000
                 00  00  00 
                 00  00
                             ThreadPoolData
      ff00001778 00  00  00       void *     00000000
                 00  00  00 
                 00  00
                             TlsExpansionSlots
      ff00001780 00  00  00       void *     00000000
                 00  00  00 
                 00  00
                             DeallocationBStore
      ff00001788 00  00  00       void *     00000000
                 00  00  00 
                 00  00
                             BStoreLimit
      ff00001790 00  00  00       void *     00000000
                 00  00  00 
                 00  00
                             MuiGeneration
      ff00001798 00  00  00  00    ddw        0h
                             IsImpersonating
      ff0000179c 00  00  00  00    ddw        0h
                             NlsCache
      ff000017a0 00  00  00       void *     00000000
                 00  00  00 
                 00  00
                             pShimData
      ff000017a8 00  00  00       void *     00000000
                 00  00  00 
                 00  00
                             HeapVirtualAffinity
      ff000017b0 00  00  00  00    ddw        0h
      ff000017b4 00              ??         00h
      ff000017b5 00              ??         00h
      ff000017b6 00              ??         00h
      ff000017b7 00              ??         00h
                             CurrentTransactionHandle
      ff000017b8 00  00  00       void *     00000000
                 00  00  00 
                 00  00
                             ActiveFrame
      ff000017c0 00  00  00       void *     00000000
                 00  00  00 
                 00  00
                             FlsData
      ff000017c8 00  00  00       void *     00000000
                 00  00  00 
                 00  00
                             PreferredLanguages
      ff000017d0 00  00  00       void *     00000000
                 00  00  00 
                 00  00
                             UserPrefLanguages
      ff000017d8 00  00  00       void *     00000000
                 00  00  00 
                 00  00
                             MergedPrefLanguages
      ff000017e0 00  00  00       void *     00000000
                 00  00  00 
                 00  00
                             MuiImpersonation
      ff000017e8 00  00  00  00    ddw        0h
                             CrossTebFlags
      ff000017ec 00  00           ushort     0h
                             SameTebFlags
      ff000017ee 00  00           ushort     0h
                             TxnScopeEnterCallback
      ff000017f0 00  00  00       void *     00000000
                 00  00  00 
                 00  00
                             TxnScopeExitCallback
      ff000017f8 00  00  00       void *     00000000
                 00  00  00 
                 00  00
                             TxnScopeContext
      ff00001800 00  00  00       void *     00000000
                 00  00  00 
                 00  00
                             LockCount
      ff00001808 00  00  00  00    ddw        0h
      ff0000180c 00              ??         00h
      ff0000180d 00              ??         00h
      ff0000180e 00              ??         00h
      ff0000180f 00              ??         00h
                             ResourceRetValue
      ff00001810 00  00  00       void *     00000000
                 00  00  00 
                 00  00
      ff00001818 00              ??         00h
      ff00001819 00              ??         00h
      ff0000181a 00              ??         00h
      ff0000181b 00              ??         00h
      ff0000181c 00              ??         00h
      ff0000181d 00              ??         00h
      ff0000181e 00              ??         00h
      ff0000181f 00              ??         00h
      ff00001820 00              ??         00h
      ff00001821 00              ??         00h
      ff00001822 00              ??         00h
      ff00001823 00              ??         00h
      ff00001824 00              ??         00h
      ff00001825 00              ??         00h
      ff00001826 00              ??         00h
      ff00001827 00              ??         00h
      ff00001828 00              ??         00h
      ff00001829 00              ??         00h
      ff0000182a 00              ??         00h
      ff0000182b 00              ??         00h
      ff0000182c 00              ??         00h
      ff0000182d 00              ??         00h
      ff0000182e 00              ??         00h
      ff0000182f 00              ??         00h
      ff00001830 00              ??         00h
      ff00001831 00              ??         00h
      ff00001832 00              ??         00h
      ff00001833 00              ??         00h
      ff00001834 00              ??         00h
      ff00001835 00              ??         00h
      ff00001836 00              ??         00h
      ff00001837 00              ??         00h
      ff00001838 00              ??         00h
      ff00001839 00              ??         00h
      ff0000183a 00              ??         00h
      ff0000183b 00              ??         00h
      ff0000183c 00              ??         00h
      ff0000183d 00              ??         00h
      ff0000183e 00              ??         00h
      ff0000183f 00              ??         00h
      ff00001840 00              ??         00h
      ff00001841 00              ??         00h
      ff00001842 00              ??         00h
      ff00001843 00              ??         00h
      ff00001844 00              ??         00h
      ff00001845 00              ??         00h
      ff00001846 00              ??         00h
      ff00001847 00              ??         00h
      ff00001848 00              ??         00h
      ff00001849 00              ??         00h
      ff0000184a 00              ??         00h
      ff0000184b 00              ??         00h
      ff0000184c 00              ??         00h
      ff0000184d 00              ??         00h
      ff0000184e 00              ??         00h
      ff0000184f 00              ??         00h
